
zram_hashtable.o:     file format elf64-x86-64


Disassembly of section .text:

0000000000000000 <alloc_Node>:
#include <linux/slab.h>

struct Node* node_table;
struct Head* head_table;

struct Node  *alloc_Node(void){
       0:	e8 00 00 00 00       	callq  5 <alloc_Node+0x5>
       5:	55                   	push   %rbp
		index = kmalloc_index(size);

		if (!index)
			return ZERO_SIZE_PTR;

		return kmem_cache_alloc_trace(
       6:	ba 78 00 00 00       	mov    $0x78,%edx
       b:	be c0 0d 00 00       	mov    $0xdc0,%esi
      10:	48 8b 3d 00 00 00 00 	mov    0x0(%rip),%rdi        # 17 <alloc_Node+0x17>
      17:	48 89 e5             	mov    %rsp,%rbp
      1a:	41 54                	push   %r12
      1c:	e8 00 00 00 00       	callq  21 <alloc_Node+0x21>
      21:	49 89 c4             	mov    %rax,%r12
    struct Node *node = kzalloc(sizeof(*node), GFP_KERNEL);
	if(node == NULL){
      24:	48 85 c0             	test   %rax,%rax
      27:	0f 84 00 00 00 00    	je     2d <alloc_Node+0x2d>
        pr_err("can't kzalloc hash node");
        return NULL;
    }
    INIT_LIST_HEAD(&node->list);
      2d:	48 8d 40 20          	lea    0x20(%rax),%rax
 * Initializes the list_head to point to itself.  If it is a list header,
 * the result is an empty list.
 */
static inline void INIT_LIST_HEAD(struct list_head *list)
{
	WRITE_ONCE(list->next, list);
      31:	49 89 44 24 20       	mov    %rax,0x20(%r12)
	list->prev = list;
      36:	49 89 44 24 28       	mov    %rax,0x28(%r12)
    return node;
}
      3b:	4c 89 e0             	mov    %r12,%rax
      3e:	41 5c                	pop    %r12
      40:	5d                   	pop    %rbp
      41:	c3                   	retq   
      42:	66 66 2e 0f 1f 84 00 	data16 nopw %cs:0x0(%rax,%rax,1)
      49:	00 00 00 00 
      4d:	0f 1f 00             	nopl   (%rax)

0000000000000050 <scan_min_ref_head>:

struct Head* scan_min_ref_head(void)
{
      50:	e8 00 00 00 00       	callq  55 <scan_min_ref_head+0x5>
      55:	55                   	push   %rbp
    struct Head *head;
    unsigned long ref;
    for(ref = 1; ref < CAPACITY; ++ref){
        HASH_FIND_INT(head_table, &ref, head);
      56:	be 02 00 00 00       	mov    $0x2,%esi
      5b:	41 b9 c6 ba 49 9f    	mov    $0x9f49bac6,%r9d
      61:	41 b8 f3 be ed fe    	mov    $0xfeedbef3,%r8d
{
      67:	48 89 e5             	mov    %rsp,%rbp
      6a:	48 83 ec 10          	sub    $0x10,%rsp
        HASH_FIND_INT(head_table, &ref, head);
      6e:	48 8b 3d 00 00 00 00 	mov    0x0(%rip),%rdi        # 75 <scan_min_ref_head+0x25>
{
      75:	65 48 8b 04 25 28 00 	mov    %gs:0x28,%rax
      7c:	00 00 
      7e:	48 89 45 f8          	mov    %rax,-0x8(%rbp)
      82:	31 c0                	xor    %eax,%eax
    for(ref = 1; ref < CAPACITY; ++ref){
      84:	48 c7 45 f0 01 00 00 	movq   $0x1,-0x10(%rbp)
      8b:	00 
      8c:	eb 15                	jmp    a3 <scan_min_ref_head+0x53>
      8e:	48 89 75 f0          	mov    %rsi,-0x10(%rbp)
      92:	48 83 c6 01          	add    $0x1,%rsi
      96:	48 81 fe 89 13 00 00 	cmp    $0x1389,%rsi
      9d:	0f 84 00 00 00 00    	je     a3 <scan_min_ref_head+0x53>
        HASH_FIND_INT(head_table, &ref, head);
      a3:	48 85 ff             	test   %rdi,%rdi
      a6:	74 e6                	je     8e <scan_min_ref_head+0x3e>
      a8:	0f b6 45 f3          	movzbl -0xd(%rbp),%eax
      ac:	0f b6 55 f0          	movzbl -0x10(%rbp),%edx
      b0:	c1 e0 18             	shl    $0x18,%eax
      b3:	8d 8c 10 0d 41 12 01 	lea    0x112410d(%rax,%rdx,1),%ecx
      ba:	0f b6 45 f2          	movzbl -0xe(%rbp),%eax
      be:	c1 e0 10             	shl    $0x10,%eax
      c1:	8d 14 01             	lea    (%rcx,%rax,1),%edx
      c4:	0f b6 45 f1          	movzbl -0xf(%rbp),%eax
      c8:	44 89 c9             	mov    %r9d,%ecx
      cb:	c1 e0 08             	shl    $0x8,%eax
      ce:	01 d0                	add    %edx,%eax
      d0:	35 6d f7 07 00       	xor    $0x7f76d,%eax
      d5:	89 c2                	mov    %eax,%edx
      d7:	29 c1                	sub    %eax,%ecx
      d9:	c1 e2 08             	shl    $0x8,%edx
      dc:	31 ca                	xor    %ecx,%edx
      de:	44 89 c1             	mov    %r8d,%ecx
      e1:	29 c1                	sub    %eax,%ecx
      e3:	41 89 d2             	mov    %edx,%r10d
      e6:	29 d0                	sub    %edx,%eax
      e8:	29 d1                	sub    %edx,%ecx
      ea:	41 c1 ea 0d          	shr    $0xd,%r10d
      ee:	44 31 d1             	xor    %r10d,%ecx
      f1:	41 89 ca             	mov    %ecx,%r10d
      f4:	29 c8                	sub    %ecx,%eax
      f6:	29 ca                	sub    %ecx,%edx
      f8:	41 c1 ea 0c          	shr    $0xc,%r10d
      fc:	44 31 d0             	xor    %r10d,%eax
      ff:	41 89 c2             	mov    %eax,%r10d
     102:	29 c2                	sub    %eax,%edx
     104:	29 c1                	sub    %eax,%ecx
     106:	41 c1 e2 10          	shl    $0x10,%r10d
     10a:	44 31 d2             	xor    %r10d,%edx
     10d:	41 89 d2             	mov    %edx,%r10d
     110:	29 d1                	sub    %edx,%ecx
     112:	29 d0                	sub    %edx,%eax
     114:	41 c1 ea 05          	shr    $0x5,%r10d
     118:	44 31 d1             	xor    %r10d,%ecx
     11b:	41 89 c2             	mov    %eax,%r10d
     11e:	89 c8                	mov    %ecx,%eax
     120:	41 29 ca             	sub    %ecx,%r10d
     123:	29 ca                	sub    %ecx,%edx
     125:	c1 e8 03             	shr    $0x3,%eax
     128:	41 31 c2             	xor    %eax,%r10d
     12b:	89 c8                	mov    %ecx,%eax
     12d:	45 89 d3             	mov    %r10d,%r11d
     130:	44 29 d2             	sub    %r10d,%edx
     133:	41 c1 e3 0a          	shl    $0xa,%r11d
     137:	44 31 da             	xor    %r11d,%edx
     13a:	44 29 d0             	sub    %r10d,%eax
     13d:	29 d0                	sub    %edx,%eax
     13f:	c1 ea 0f             	shr    $0xf,%edx
     142:	89 d1                	mov    %edx,%ecx
     144:	48 8b 57 18          	mov    0x18(%rdi),%rdx
     148:	31 c1                	xor    %eax,%ecx
     14a:	8b 42 08             	mov    0x8(%rdx),%eax
     14d:	83 e8 01             	sub    $0x1,%eax
     150:	21 c8                	and    %ecx,%eax
     152:	48 c1 e0 04          	shl    $0x4,%rax
     156:	48 03 02             	add    (%rdx),%rax
     159:	48 8b 00             	mov    (%rax),%rax
     15c:	48 85 c0             	test   %rax,%rax
     15f:	0f 84 29 ff ff ff    	je     8e <scan_min_ref_head+0x3e>
     165:	4c 8b 52 20          	mov    0x20(%rdx),%r10
     169:	4c 89 d2             	mov    %r10,%rdx
     16c:	48 f7 da             	neg    %rdx
     16f:	4c 29 d0             	sub    %r10,%rax
     172:	75 1b                	jne    18f <scan_min_ref_head+0x13f>
     174:	e9 15 ff ff ff       	jmpq   8e <scan_min_ref_head+0x3e>
     179:	48 8b 40 38          	mov    0x38(%rax),%rax
     17d:	48 85 c0             	test   %rax,%rax
     180:	0f 84 08 ff ff ff    	je     8e <scan_min_ref_head+0x3e>
     186:	48 01 d0             	add    %rdx,%rax
     189:	0f 84 ff fe ff ff    	je     8e <scan_min_ref_head+0x3e>
     18f:	39 48 4c             	cmp    %ecx,0x4c(%rax)
     192:	75 e5                	jne    179 <scan_min_ref_head+0x129>
     194:	83 78 48 04          	cmpl   $0x4,0x48(%rax)
     198:	75 df                	jne    179 <scan_min_ref_head+0x129>
		if (q_size < size)
			__read_overflow2();
	}
	if (p_size < size || q_size < size)
		fortify_panic(__func__);
	return __underlying_memcmp(p, q, size);
     19a:	4c 8b 50 40          	mov    0x40(%rax),%r10
     19e:	44 8b 5d f0          	mov    -0x10(%rbp),%r11d
     1a2:	45 39 1a             	cmp    %r11d,(%r10)
     1a5:	75 d2                	jne    179 <scan_min_ref_head+0x129>
            return head;
    }
    
    pr_err("can't scan the min ref head");
    return NULL;
}
     1a7:	48 8b 7d f8          	mov    -0x8(%rbp),%rdi
     1ab:	65 48 33 3c 25 28 00 	xor    %gs:0x28,%rdi
     1b2:	00 00 
     1b4:	75 02                	jne    1b8 <scan_min_ref_head+0x168>
     1b6:	c9                   	leaveq 
     1b7:	c3                   	retq   
     1b8:	e8 00 00 00 00       	callq  1bd <scan_min_ref_head+0x16d>
     1bd:	0f 1f 00             	nopl   (%rax)

00000000000001c0 <del_node_list>:

void del_node_list(struct Node *node)
{
     1c0:	e8 00 00 00 00       	callq  1c5 <del_node_list+0x5>
     1c5:	55                   	push   %rbp
     1c6:	48 89 e5             	mov    %rsp,%rbp
     1c9:	41 54                	push   %r12
 * Note: list_empty() on entry does not return true after this, the entry is
 * in an undefined state.
 */
static inline void list_del(struct list_head *entry)
{
	__list_del_entry(entry);
     1cb:	48 8b 47 28          	mov    0x28(%rdi),%rax
    struct Head *head;
    list_del(&node->list);
    HASH_FIND_INT(head_table, &node->ref, head);
     1cf:	45 31 e4             	xor    %r12d,%r12d
     1d2:	48 8b 57 20          	mov    0x20(%rdi),%rdx
	next->prev = prev;
     1d6:	48 89 42 08          	mov    %rax,0x8(%rdx)
	WRITE_ONCE(prev->next, next);
     1da:	48 89 10             	mov    %rdx,(%rax)
     1dd:	48 8b 35 00 00 00 00 	mov    0x0(%rip),%rsi        # 1e4 <del_node_list+0x24>
	entry->next = LIST_POISON1;
     1e4:	48 b8 00 01 00 00 00 	movabs $0xdead000000000100,%rax
     1eb:	00 ad de 
     1ee:	48 89 47 20          	mov    %rax,0x20(%rdi)
	entry->prev = LIST_POISON2;
     1f2:	48 83 c0 22          	add    $0x22,%rax
     1f6:	48 89 47 28          	mov    %rax,0x28(%rdi)
     1fa:	48 85 f6             	test   %rsi,%rsi
     1fd:	0f 84 fb 00 00 00    	je     2fe <del_node_list+0x13e>
     203:	0f b6 47 1b          	movzbl 0x1b(%rdi),%eax
     207:	0f b6 57 18          	movzbl 0x18(%rdi),%edx
     20b:	41 b8 c6 ba 49 9f    	mov    $0x9f49bac6,%r8d
     211:	c1 e0 18             	shl    $0x18,%eax
     214:	8d 8c 10 0d 41 12 01 	lea    0x112410d(%rax,%rdx,1),%ecx
     21b:	0f b6 47 1a          	movzbl 0x1a(%rdi),%eax
     21f:	c1 e0 10             	shl    $0x10,%eax
     222:	8d 14 01             	lea    (%rcx,%rax,1),%edx
     225:	0f b6 47 19          	movzbl 0x19(%rdi),%eax
     229:	b9 f3 be ed fe       	mov    $0xfeedbef3,%ecx
     22e:	c1 e0 08             	shl    $0x8,%eax
     231:	01 d0                	add    %edx,%eax
     233:	44 89 c2             	mov    %r8d,%edx
     236:	35 6d f7 07 00       	xor    $0x7f76d,%eax
     23b:	41 89 c0             	mov    %eax,%r8d
     23e:	29 c2                	sub    %eax,%edx
     240:	29 c1                	sub    %eax,%ecx
     242:	41 c1 e0 08          	shl    $0x8,%r8d
     246:	41 31 d0             	xor    %edx,%r8d
     249:	44 29 c1             	sub    %r8d,%ecx
     24c:	44 29 c0             	sub    %r8d,%eax
     24f:	89 ca                	mov    %ecx,%edx
     251:	44 89 c1             	mov    %r8d,%ecx
     254:	c1 e9 0d             	shr    $0xd,%ecx
     257:	31 d1                	xor    %edx,%ecx
     259:	89 ca                	mov    %ecx,%edx
     25b:	29 c8                	sub    %ecx,%eax
     25d:	41 29 c8             	sub    %ecx,%r8d
     260:	c1 ea 0c             	shr    $0xc,%edx
     263:	31 d0                	xor    %edx,%eax
     265:	44 89 c2             	mov    %r8d,%edx
     268:	41 89 c0             	mov    %eax,%r8d
     26b:	29 c2                	sub    %eax,%edx
     26d:	29 c1                	sub    %eax,%ecx
     26f:	41 c1 e0 10          	shl    $0x10,%r8d
     273:	41 31 d0             	xor    %edx,%r8d
     276:	44 29 c1             	sub    %r8d,%ecx
     279:	44 29 c0             	sub    %r8d,%eax
     27c:	89 ca                	mov    %ecx,%edx
     27e:	44 89 c1             	mov    %r8d,%ecx
     281:	c1 e9 05             	shr    $0x5,%ecx
     284:	31 d1                	xor    %edx,%ecx
     286:	89 ca                	mov    %ecx,%edx
     288:	29 c8                	sub    %ecx,%eax
     28a:	41 29 c8             	sub    %ecx,%r8d
     28d:	c1 ea 03             	shr    $0x3,%edx
     290:	31 c2                	xor    %eax,%edx
     292:	89 d0                	mov    %edx,%eax
     294:	41 29 d0             	sub    %edx,%r8d
     297:	c1 e0 0a             	shl    $0xa,%eax
     29a:	44 31 c0             	xor    %r8d,%eax
     29d:	29 d1                	sub    %edx,%ecx
     29f:	89 ca                	mov    %ecx,%edx
     2a1:	48 8b 4e 18          	mov    0x18(%rsi),%rcx
     2a5:	29 c2                	sub    %eax,%edx
     2a7:	c1 e8 0f             	shr    $0xf,%eax
     2aa:	31 c2                	xor    %eax,%edx
     2ac:	8b 41 08             	mov    0x8(%rcx),%eax
     2af:	83 e8 01             	sub    $0x1,%eax
     2b2:	21 d0                	and    %edx,%eax
     2b4:	48 c1 e0 04          	shl    $0x4,%rax
     2b8:	48 03 01             	add    (%rcx),%rax
     2bb:	4c 8b 20             	mov    (%rax),%r12
     2be:	4d 85 e4             	test   %r12,%r12
     2c1:	74 3b                	je     2fe <del_node_list+0x13e>
     2c3:	48 8b 49 20          	mov    0x20(%rcx),%rcx
     2c7:	48 89 c8             	mov    %rcx,%rax
     2ca:	48 f7 d8             	neg    %rax
     2cd:	49 29 cc             	sub    %rcx,%r12
     2d0:	75 11                	jne    2e3 <del_node_list+0x123>
     2d2:	eb 2a                	jmp    2fe <del_node_list+0x13e>
     2d4:	4d 8b 64 24 38       	mov    0x38(%r12),%r12
     2d9:	4d 85 e4             	test   %r12,%r12
     2dc:	74 20                	je     2fe <del_node_list+0x13e>
     2de:	49 01 c4             	add    %rax,%r12
     2e1:	74 1b                	je     2fe <del_node_list+0x13e>
     2e3:	41 39 54 24 4c       	cmp    %edx,0x4c(%r12)
     2e8:	75 ea                	jne    2d4 <del_node_list+0x114>
     2ea:	41 83 7c 24 48 04    	cmpl   $0x4,0x48(%r12)
     2f0:	75 e2                	jne    2d4 <del_node_list+0x114>
     2f2:	49 8b 4c 24 40       	mov    0x40(%r12),%rcx
     2f7:	8b 09                	mov    (%rcx),%ecx
     2f9:	39 4f 18             	cmp    %ecx,0x18(%rdi)
     2fc:	75 d6                	jne    2d4 <del_node_list+0x114>
 * list_empty - tests whether a list is empty
 * @head: the list to test.
 */
static inline int list_empty(const struct list_head *head)
{
	return READ_ONCE(head->next) == head;
     2fe:	49 8b 54 24 08       	mov    0x8(%r12),%rdx
    if(list_empty(&head->head)){
     303:	49 8d 44 24 08       	lea    0x8(%r12),%rax
     308:	48 39 c2             	cmp    %rax,%rdx
     30b:	74 04                	je     311 <del_node_list+0x151>
        HASH_DEL(head_table, head);
        kfree(head);
    }
}
     30d:	41 5c                	pop    %r12
     30f:	5d                   	pop    %rbp
     310:	c3                   	retq   
        HASH_DEL(head_table, head);
     311:	49 8b 44 24 20       	mov    0x20(%r12),%rax
     316:	48 8b 56 18          	mov    0x18(%rsi),%rdx
     31a:	49 8d 7c 24 18       	lea    0x18(%r12),%rdi
     31f:	48 85 c0             	test   %rax,%rax
     322:	0f 84 a8 00 00 00    	je     3d0 <del_node_list+0x210>
     328:	48 3b 7a 18          	cmp    0x18(%rdx),%rdi
     32c:	0f 84 83 00 00 00    	je     3b5 <del_node_list+0x1f5>
     332:	49 8b 4c 24 28       	mov    0x28(%r12),%rcx
     337:	48 8b 52 20          	mov    0x20(%rdx),%rdx
     33b:	48 89 4c 10 10       	mov    %rcx,0x10(%rax,%rdx,1)
     340:	49 8b 4c 24 28       	mov    0x28(%r12),%rcx
     345:	48 8b 56 18          	mov    0x18(%rsi),%rdx
     349:	48 85 c9             	test   %rcx,%rcx
     34c:	74 12                	je     360 <del_node_list+0x1a0>
     34e:	48 8b 42 20          	mov    0x20(%rdx),%rax
     352:	4d 8b 44 24 20       	mov    0x20(%r12),%r8
     357:	4c 89 44 01 08       	mov    %r8,0x8(%rcx,%rax,1)
     35c:	48 8b 56 18          	mov    0x18(%rsi),%rdx
     360:	8b 42 08             	mov    0x8(%rdx),%eax
     363:	83 e8 01             	sub    $0x1,%eax
     366:	41 23 44 24 4c       	and    0x4c(%r12),%eax
     36b:	48 c1 e0 04          	shl    $0x4,%rax
     36f:	48 03 02             	add    (%rdx),%rax
     372:	83 68 08 01          	subl   $0x1,0x8(%rax)
     376:	48 39 38             	cmp    %rdi,(%rax)
     379:	74 74                	je     3ef <del_node_list+0x22f>
     37b:	49 8b 54 24 30       	mov    0x30(%r12),%rdx
     380:	49 8b 44 24 38       	mov    0x38(%r12),%rax
     385:	48 85 d2             	test   %rdx,%rdx
     388:	74 09                	je     393 <del_node_list+0x1d3>
     38a:	48 89 42 20          	mov    %rax,0x20(%rdx)
     38e:	49 8b 44 24 38       	mov    0x38(%r12),%rax
     393:	48 85 c0             	test   %rax,%rax
     396:	74 09                	je     3a1 <del_node_list+0x1e1>
     398:	49 8b 54 24 30       	mov    0x30(%r12),%rdx
     39d:	48 89 50 18          	mov    %rdx,0x18(%rax)
     3a1:	48 8b 46 18          	mov    0x18(%rsi),%rax
     3a5:	83 68 10 01          	subl   $0x1,0x10(%rax)
        kfree(head);
     3a9:	4c 89 e7             	mov    %r12,%rdi
     3ac:	e8 00 00 00 00       	callq  3b1 <del_node_list+0x1f1>
}
     3b1:	41 5c                	pop    %r12
     3b3:	5d                   	pop    %rbp
     3b4:	c3                   	retq   
        HASH_DEL(head_table, head);
     3b5:	48 03 42 20          	add    0x20(%rdx),%rax
     3b9:	48 89 42 18          	mov    %rax,0x18(%rdx)
     3bd:	49 8b 44 24 20       	mov    0x20(%r12),%rax
     3c2:	48 85 c0             	test   %rax,%rax
     3c5:	74 3c                	je     403 <del_node_list+0x243>
     3c7:	48 8b 56 18          	mov    0x18(%rsi),%rdx
     3cb:	e9 62 ff ff ff       	jmpq   332 <del_node_list+0x172>
     3d0:	49 8b 4c 24 28       	mov    0x28(%r12),%rcx
     3d5:	48 85 c9             	test   %rcx,%rcx
     3d8:	74 30                	je     40a <del_node_list+0x24a>
     3da:	48 3b 7a 18          	cmp    0x18(%rdx),%rdi
     3de:	74 d5                	je     3b5 <del_node_list+0x1f5>
     3e0:	48 89 0d 00 00 00 00 	mov    %rcx,0x0(%rip)        # 3e7 <del_node_list+0x227>
     3e7:	48 89 ce             	mov    %rcx,%rsi
     3ea:	e9 56 ff ff ff       	jmpq   345 <del_node_list+0x185>
     3ef:	49 8b 54 24 38       	mov    0x38(%r12),%rdx
     3f4:	48 89 10             	mov    %rdx,(%rax)
     3f7:	48 8b 35 00 00 00 00 	mov    0x0(%rip),%rsi        # 3fe <del_node_list+0x23e>
     3fe:	e9 78 ff ff ff       	jmpq   37b <del_node_list+0x1bb>
     403:	49 8b 4c 24 28       	mov    0x28(%r12),%rcx
     408:	eb d6                	jmp    3e0 <del_node_list+0x220>
     40a:	48 8b 3a             	mov    (%rdx),%rdi
     40d:	e8 00 00 00 00       	callq  412 <del_node_list+0x252>
     412:	48 8b 05 00 00 00 00 	mov    0x0(%rip),%rax        # 419 <del_node_list+0x259>
     419:	48 8b 78 18          	mov    0x18(%rax),%rdi
     41d:	e8 00 00 00 00       	callq  422 <del_node_list+0x262>
     422:	48 c7 05 00 00 00 00 	movq   $0x0,0x0(%rip)        # 42d <del_node_list+0x26d>
     429:	00 00 00 00 
     42d:	e9 77 ff ff ff       	jmpq   3a9 <del_node_list+0x1e9>
     432:	66 66 2e 0f 1f 84 00 	data16 nopw %cs:0x0(%rax,%rax,1)
     439:	00 00 00 00 
     43d:	0f 1f 00             	nopl   (%rax)

0000000000000440 <del_LFU>:

struct Node *del_LFU(void){
     440:	e8 00 00 00 00       	callq  445 <del_LFU+0x5>
     445:	55                   	push   %rbp
     446:	48 89 e5             	mov    %rsp,%rbp
     449:	41 54                	push   %r12
     44b:	53                   	push   %rbx
    struct Node* node;
    struct Head *min_head;
    struct list_head *list;

    min_head = scan_min_ref_head();
     44c:	e8 00 00 00 00       	callq  451 <del_LFU+0x11>
     451:	49 89 c4             	mov    %rax,%r12
    if(min_head == NULL){
     454:	48 85 c0             	test   %rax,%rax
     457:	0f 84 00 00 00 00    	je     45d <del_LFU+0x1d>
     45d:	48 8b 50 08          	mov    0x8(%rax),%rdx
        pr_err("del_LFU error");
        return NULL;
    }
    if(list_empty(&min_head->head)){
     461:	48 8d 40 08          	lea    0x8(%rax),%rax
     465:	48 39 c2             	cmp    %rax,%rdx
     468:	0f 84 00 00 00 00    	je     46e <del_LFU+0x2e>
        pr_err("LFU empty list");
        return NULL;
    }
    // LRU
    list = min_head->head.prev;
     46e:	49 8b 5c 24 10       	mov    0x10(%r12),%rbx
    node = list_entry(list, struct Node, list);
     473:	4c 8d 63 e0          	lea    -0x20(%rbx),%r12

    del_node_list(node);
     477:	4c 89 e7             	mov    %r12,%rdi
     47a:	e8 00 00 00 00       	callq  47f <del_LFU+0x3f>
    HASH_DEL(node_table, node);
     47f:	48 8b 43 18          	mov    0x18(%rbx),%rax
     483:	48 8d 7b 10          	lea    0x10(%rbx),%rdi
     487:	48 85 c0             	test   %rax,%rax
     48a:	0f 84 9f 00 00 00    	je     52f <del_LFU+0xef>
     490:	48 8b 15 00 00 00 00 	mov    0x0(%rip),%rdx        # 497 <del_LFU+0x57>
     497:	48 8b 4a 30          	mov    0x30(%rdx),%rcx
     49b:	48 3b 79 18          	cmp    0x18(%rcx),%rdi
     49f:	0f 84 a4 00 00 00    	je     549 <del_LFU+0x109>
     4a5:	48 8b 73 20          	mov    0x20(%rbx),%rsi
     4a9:	48 8b 49 20          	mov    0x20(%rcx),%rcx
     4ad:	48 89 74 08 10       	mov    %rsi,0x10(%rax,%rcx,1)
     4b2:	48 8b 73 20          	mov    0x20(%rbx),%rsi
     4b6:	48 8b 4a 30          	mov    0x30(%rdx),%rcx
     4ba:	48 85 f6             	test   %rsi,%rsi
     4bd:	74 11                	je     4d0 <del_LFU+0x90>
     4bf:	48 8b 41 20          	mov    0x20(%rcx),%rax
     4c3:	4c 8b 43 18          	mov    0x18(%rbx),%r8
     4c7:	4c 89 44 06 08       	mov    %r8,0x8(%rsi,%rax,1)
     4cc:	48 8b 4a 30          	mov    0x30(%rdx),%rcx
     4d0:	8b 41 08             	mov    0x8(%rcx),%eax
     4d3:	83 e8 01             	sub    $0x1,%eax
     4d6:	23 43 44             	and    0x44(%rbx),%eax
     4d9:	48 c1 e0 04          	shl    $0x4,%rax
     4dd:	48 03 01             	add    (%rcx),%rax
     4e0:	83 68 08 01          	subl   $0x1,0x8(%rax)
     4e4:	48 39 38             	cmp    %rdi,(%rax)
     4e7:	0f 84 89 00 00 00    	je     576 <del_LFU+0x136>
     4ed:	48 8b 4b 28          	mov    0x28(%rbx),%rcx
     4f1:	48 8b 43 30          	mov    0x30(%rbx),%rax
     4f5:	48 85 c9             	test   %rcx,%rcx
     4f8:	74 08                	je     502 <del_LFU+0xc2>
     4fa:	48 89 41 20          	mov    %rax,0x20(%rcx)
     4fe:	48 8b 43 30          	mov    0x30(%rbx),%rax
     502:	48 85 c0             	test   %rax,%rax
     505:	74 08                	je     50f <del_LFU+0xcf>
     507:	48 8b 4b 28          	mov    0x28(%rbx),%rcx
     50b:	48 89 48 18          	mov    %rcx,0x18(%rax)
     50f:	48 8b 42 30          	mov    0x30(%rdx),%rax
     513:	83 68 10 01          	subl   $0x1,0x10(%rax)
    node->handle = node->comp_len = 0;
     517:	48 c7 43 50 00 00 00 	movq   $0x0,0x50(%rbx)
     51e:	00 
     51f:	48 c7 43 48 00 00 00 	movq   $0x0,0x48(%rbx)
     526:	00 
    return node;
}
     527:	4c 89 e0             	mov    %r12,%rax
     52a:	5b                   	pop    %rbx
     52b:	41 5c                	pop    %r12
     52d:	5d                   	pop    %rbp
     52e:	c3                   	retq   
     52f:	48 8b 15 00 00 00 00 	mov    0x0(%rip),%rdx        # 536 <del_LFU+0xf6>
    HASH_DEL(node_table, node);
     536:	48 8b 73 20          	mov    0x20(%rbx),%rsi
     53a:	48 8b 4a 30          	mov    0x30(%rdx),%rcx
     53e:	48 85 f6             	test   %rsi,%rsi
     541:	74 46                	je     589 <del_LFU+0x149>
     543:	48 3b 79 18          	cmp    0x18(%rcx),%rdi
     547:	75 1e                	jne    567 <del_LFU+0x127>
     549:	48 03 41 20          	add    0x20(%rcx),%rax
     54d:	48 89 41 18          	mov    %rax,0x18(%rcx)
     551:	48 8b 43 18          	mov    0x18(%rbx),%rax
     555:	48 85 c0             	test   %rax,%rax
     558:	74 09                	je     563 <del_LFU+0x123>
     55a:	48 8b 4a 30          	mov    0x30(%rdx),%rcx
     55e:	e9 42 ff ff ff       	jmpq   4a5 <del_LFU+0x65>
     563:	48 8b 73 20          	mov    0x20(%rbx),%rsi
     567:	48 89 35 00 00 00 00 	mov    %rsi,0x0(%rip)        # 56e <del_LFU+0x12e>
     56e:	48 89 f2             	mov    %rsi,%rdx
     571:	e9 40 ff ff ff       	jmpq   4b6 <del_LFU+0x76>
     576:	48 8b 53 30          	mov    0x30(%rbx),%rdx
     57a:	48 89 10             	mov    %rdx,(%rax)
     57d:	48 8b 15 00 00 00 00 	mov    0x0(%rip),%rdx        # 584 <del_LFU+0x144>
     584:	e9 64 ff ff ff       	jmpq   4ed <del_LFU+0xad>
     589:	48 8b 39             	mov    (%rcx),%rdi
     58c:	e8 00 00 00 00       	callq  591 <del_LFU+0x151>
     591:	48 8b 05 00 00 00 00 	mov    0x0(%rip),%rax        # 598 <del_LFU+0x158>
     598:	48 8b 78 30          	mov    0x30(%rax),%rdi
     59c:	e8 00 00 00 00       	callq  5a1 <del_LFU+0x161>
     5a1:	48 c7 05 00 00 00 00 	movq   $0x0,0x0(%rip)        # 5ac <del_LFU+0x16c>
     5a8:	00 00 00 00 
     5ac:	e9 66 ff ff ff       	jmpq   517 <del_LFU+0xd7>
     5b1:	66 66 2e 0f 1f 84 00 	data16 nopw %cs:0x0(%rax,%rax,1)
     5b8:	00 00 00 00 
     5bc:	0f 1f 40 00          	nopl   0x0(%rax)

00000000000005c0 <find_or_alloc_head>:

struct Head* find_or_alloc_head(unsigned long ref)
{
     5c0:	e8 00 00 00 00       	callq  5c5 <find_or_alloc_head+0x5>
     5c5:	55                   	push   %rbp
     5c6:	48 89 e5             	mov    %rsp,%rbp
     5c9:	41 57                	push   %r15
     5cb:	41 56                	push   %r14
     5cd:	41 55                	push   %r13
     5cf:	41 54                	push   %r12
     5d1:	53                   	push   %rbx
     5d2:	48 83 ec 08          	sub    $0x8,%rsp
    struct Head *head;
    HASH_FIND_INT(head_table, &ref, head);
     5d6:	48 8b 35 00 00 00 00 	mov    0x0(%rip),%rsi        # 5dd <find_or_alloc_head+0x1d>
{
     5dd:	48 89 7d d0          	mov    %rdi,-0x30(%rbp)
    HASH_FIND_INT(head_table, &ref, head);
     5e1:	48 85 f6             	test   %rsi,%rsi
     5e4:	0f 84 fa 00 00 00    	je     6e4 <find_or_alloc_head+0x124>
     5ea:	0f b6 45 d3          	movzbl -0x2d(%rbp),%eax
     5ee:	0f b6 55 d0          	movzbl -0x30(%rbp),%edx
     5f2:	bf c6 ba 49 9f       	mov    $0x9f49bac6,%edi
     5f7:	c1 e0 18             	shl    $0x18,%eax
     5fa:	8d 8c 10 0d 41 12 01 	lea    0x112410d(%rax,%rdx,1),%ecx
     601:	0f b6 45 d2          	movzbl -0x2e(%rbp),%eax
     605:	c1 e0 10             	shl    $0x10,%eax
     608:	8d 14 01             	lea    (%rcx,%rax,1),%edx
     60b:	0f b6 45 d1          	movzbl -0x2f(%rbp),%eax
     60f:	c1 e0 08             	shl    $0x8,%eax
     612:	01 d0                	add    %edx,%eax
     614:	35 6d f7 07 00       	xor    $0x7f76d,%eax
     619:	29 c7                	sub    %eax,%edi
     61b:	89 fa                	mov    %edi,%edx
     61d:	89 c7                	mov    %eax,%edi
     61f:	c1 e7 08             	shl    $0x8,%edi
     622:	31 d7                	xor    %edx,%edi
     624:	ba f3 be ed fe       	mov    $0xfeedbef3,%edx
     629:	29 c2                	sub    %eax,%edx
     62b:	29 f8                	sub    %edi,%eax
     62d:	29 fa                	sub    %edi,%edx
     62f:	89 d1                	mov    %edx,%ecx
     631:	89 fa                	mov    %edi,%edx
     633:	c1 ea 0d             	shr    $0xd,%edx
     636:	31 ca                	xor    %ecx,%edx
     638:	89 d1                	mov    %edx,%ecx
     63a:	29 d0                	sub    %edx,%eax
     63c:	29 d7                	sub    %edx,%edi
     63e:	c1 e9 0c             	shr    $0xc,%ecx
     641:	31 c8                	xor    %ecx,%eax
     643:	29 c7                	sub    %eax,%edi
     645:	29 c2                	sub    %eax,%edx
     647:	89 f9                	mov    %edi,%ecx
     649:	89 c7                	mov    %eax,%edi
     64b:	c1 e7 10             	shl    $0x10,%edi
     64e:	31 cf                	xor    %ecx,%edi
     650:	89 d1                	mov    %edx,%ecx
     652:	89 fa                	mov    %edi,%edx
     654:	29 f9                	sub    %edi,%ecx
     656:	29 f8                	sub    %edi,%eax
     658:	c1 ea 05             	shr    $0x5,%edx
     65b:	31 ca                	xor    %ecx,%edx
     65d:	89 d1                	mov    %edx,%ecx
     65f:	29 d0                	sub    %edx,%eax
     661:	29 d7                	sub    %edx,%edi
     663:	c1 e9 03             	shr    $0x3,%ecx
     666:	31 c1                	xor    %eax,%ecx
     668:	89 c8                	mov    %ecx,%eax
     66a:	29 cf                	sub    %ecx,%edi
     66c:	c1 e0 0a             	shl    $0xa,%eax
     66f:	31 f8                	xor    %edi,%eax
     671:	29 ca                	sub    %ecx,%edx
     673:	89 d1                	mov    %edx,%ecx
     675:	48 8b 56 18          	mov    0x18(%rsi),%rdx
     679:	29 c1                	sub    %eax,%ecx
     67b:	c1 e8 0f             	shr    $0xf,%eax
     67e:	31 c1                	xor    %eax,%ecx
     680:	8b 42 08             	mov    0x8(%rdx),%eax
     683:	83 e8 01             	sub    $0x1,%eax
     686:	21 c8                	and    %ecx,%eax
     688:	48 c1 e0 04          	shl    $0x4,%rax
     68c:	48 03 02             	add    (%rdx),%rax
     68f:	4c 8b 20             	mov    (%rax),%r12
     692:	4d 85 e4             	test   %r12,%r12
     695:	74 4d                	je     6e4 <find_or_alloc_head+0x124>
     697:	48 8b 42 20          	mov    0x20(%rdx),%rax
     69b:	48 89 c2             	mov    %rax,%rdx
     69e:	48 f7 da             	neg    %rdx
     6a1:	49 29 c4             	sub    %rax,%r12
     6a4:	75 11                	jne    6b7 <find_or_alloc_head+0xf7>
     6a6:	eb 3c                	jmp    6e4 <find_or_alloc_head+0x124>
     6a8:	4d 8b 64 24 38       	mov    0x38(%r12),%r12
     6ad:	4d 85 e4             	test   %r12,%r12
     6b0:	74 32                	je     6e4 <find_or_alloc_head+0x124>
     6b2:	49 01 d4             	add    %rdx,%r12
     6b5:	74 2d                	je     6e4 <find_or_alloc_head+0x124>
     6b7:	41 39 4c 24 4c       	cmp    %ecx,0x4c(%r12)
     6bc:	75 ea                	jne    6a8 <find_or_alloc_head+0xe8>
     6be:	41 83 7c 24 48 04    	cmpl   $0x4,0x48(%r12)
     6c4:	75 e2                	jne    6a8 <find_or_alloc_head+0xe8>
     6c6:	49 8b 44 24 40       	mov    0x40(%r12),%rax
     6cb:	8b 00                	mov    (%rax),%eax
     6cd:	39 45 d0             	cmp    %eax,-0x30(%rbp)
     6d0:	75 d6                	jne    6a8 <find_or_alloc_head+0xe8>

        head->ref = ref;
        HASH_ADD_INT(head_table, ref, head);
        return head;   
    }
}
     6d2:	48 83 c4 08          	add    $0x8,%rsp
     6d6:	4c 89 e0             	mov    %r12,%rax
     6d9:	5b                   	pop    %rbx
     6da:	41 5c                	pop    %r12
     6dc:	41 5d                	pop    %r13
     6de:	41 5e                	pop    %r14
     6e0:	41 5f                	pop    %r15
     6e2:	5d                   	pop    %rbp
     6e3:	c3                   	retq   
     6e4:	48 8b 3d 00 00 00 00 	mov    0x0(%rip),%rdi        # 6eb <find_or_alloc_head+0x12b>
     6eb:	ba 50 00 00 00       	mov    $0x50,%edx
     6f0:	be c0 0d 00 00       	mov    $0xdc0,%esi
     6f5:	e8 00 00 00 00       	callq  6fa <find_or_alloc_head+0x13a>
     6fa:	49 89 c4             	mov    %rax,%r12
        if(!head){
     6fd:	48 85 c0             	test   %rax,%rax
     700:	0f 84 00 00 00 00    	je     706 <find_or_alloc_head+0x146>
        INIT_LIST_HEAD(&head->head);
     706:	48 8d 40 08          	lea    0x8(%rax),%rax
        HASH_ADD_INT(head_table, ref, head);
     70a:	4c 8b 2d 00 00 00 00 	mov    0x0(%rip),%r13        # 711 <find_or_alloc_head+0x151>
     711:	4d 89 64 24 40       	mov    %r12,0x40(%r12)
     716:	4d 8d 74 24 18       	lea    0x18(%r12),%r14
	WRITE_ONCE(list->next, list);
     71b:	49 89 44 24 08       	mov    %rax,0x8(%r12)
	list->prev = list;
     720:	49 89 44 24 10       	mov    %rax,0x10(%r12)
        head->ref = ref;
     725:	48 8b 45 d0          	mov    -0x30(%rbp),%rax
        HASH_ADD_INT(head_table, ref, head);
     729:	41 c7 44 24 48 04 00 	movl   $0x4,0x48(%r12)
     730:	00 00 
     732:	8d 88 0d 41 12 01    	lea    0x112410d(%rax),%ecx
        head->ref = ref;
     738:	49 89 04 24          	mov    %rax,(%r12)
        HASH_ADD_INT(head_table, ref, head);
     73c:	b8 c6 ba 49 9f       	mov    $0x9f49bac6,%eax
     741:	81 f1 6d f7 07 00    	xor    $0x7f76d,%ecx
     747:	29 c8                	sub    %ecx,%eax
     749:	89 c2                	mov    %eax,%edx
     74b:	89 c8                	mov    %ecx,%eax
     74d:	c1 e0 08             	shl    $0x8,%eax
     750:	31 d0                	xor    %edx,%eax
     752:	ba f3 be ed fe       	mov    $0xfeedbef3,%edx
     757:	29 ca                	sub    %ecx,%edx
     759:	29 c1                	sub    %eax,%ecx
     75b:	89 d6                	mov    %edx,%esi
     75d:	89 c2                	mov    %eax,%edx
     75f:	29 c6                	sub    %eax,%esi
     761:	c1 ea 0d             	shr    $0xd,%edx
     764:	31 f2                	xor    %esi,%edx
     766:	89 ce                	mov    %ecx,%esi
     768:	89 d1                	mov    %edx,%ecx
     76a:	29 d6                	sub    %edx,%esi
     76c:	29 d0                	sub    %edx,%eax
     76e:	c1 e9 0c             	shr    $0xc,%ecx
     771:	31 f1                	xor    %esi,%ecx
     773:	29 c8                	sub    %ecx,%eax
     775:	29 ca                	sub    %ecx,%edx
     777:	89 c6                	mov    %eax,%esi
     779:	89 c8                	mov    %ecx,%eax
     77b:	c1 e0 10             	shl    $0x10,%eax
     77e:	31 f0                	xor    %esi,%eax
     780:	89 d6                	mov    %edx,%esi
     782:	89 c2                	mov    %eax,%edx
     784:	29 c6                	sub    %eax,%esi
     786:	29 c1                	sub    %eax,%ecx
     788:	c1 ea 05             	shr    $0x5,%edx
     78b:	31 f2                	xor    %esi,%edx
     78d:	89 d6                	mov    %edx,%esi
     78f:	29 d1                	sub    %edx,%ecx
     791:	29 d0                	sub    %edx,%eax
     793:	c1 ee 03             	shr    $0x3,%esi
     796:	31 f1                	xor    %esi,%ecx
     798:	89 cb                	mov    %ecx,%ebx
     79a:	29 c8                	sub    %ecx,%eax
     79c:	29 ca                	sub    %ecx,%edx
     79e:	c1 e3 0a             	shl    $0xa,%ebx
     7a1:	31 d8                	xor    %ebx,%eax
     7a3:	29 c2                	sub    %eax,%edx
     7a5:	c1 e8 0f             	shr    $0xf,%eax
     7a8:	31 d0                	xor    %edx,%eax
     7aa:	41 89 44 24 4c       	mov    %eax,0x4c(%r12)
     7af:	89 c3                	mov    %eax,%ebx
     7b1:	4d 85 ed             	test   %r13,%r13
     7b4:	0f 84 fb 01 00 00    	je     9b5 <find_or_alloc_head+0x3f5>
     7ba:	49 8b 45 18          	mov    0x18(%r13),%rax
     7be:	49 c7 44 24 28 00 00 	movq   $0x0,0x28(%r12)
     7c5:	00 00 
     7c7:	49 89 44 24 18       	mov    %rax,0x18(%r12)
     7cc:	49 8b 55 18          	mov    0x18(%r13),%rdx
     7d0:	48 8b 42 18          	mov    0x18(%rdx),%rax
     7d4:	48 2b 42 20          	sub    0x20(%rdx),%rax
     7d8:	49 89 44 24 20       	mov    %rax,0x20(%r12)
     7dd:	49 8b 45 18          	mov    0x18(%r13),%rax
     7e1:	48 8b 40 18          	mov    0x18(%rax),%rax
     7e5:	4c 89 60 10          	mov    %r12,0x10(%rax)
     7e9:	49 8b 45 18          	mov    0x18(%r13),%rax
     7ed:	4c 89 70 18          	mov    %r14,0x18(%rax)
     7f1:	49 8b 45 18          	mov    0x18(%r13),%rax
     7f5:	83 40 10 01          	addl   $0x1,0x10(%rax)
     7f9:	49 8b 55 18          	mov    0x18(%r13),%rdx
     7fd:	8b 42 08             	mov    0x8(%rdx),%eax
     800:	83 e8 01             	sub    $0x1,%eax
     803:	21 d8                	and    %ebx,%eax
     805:	48 c1 e0 04          	shl    $0x4,%rax
     809:	48 03 02             	add    (%rdx),%rax
     80c:	48 8b 10             	mov    (%rax),%rdx
     80f:	83 40 08 01          	addl   $0x1,0x8(%rax)
     813:	49 c7 44 24 30 00 00 	movq   $0x0,0x30(%r12)
     81a:	00 00 
     81c:	49 89 54 24 38       	mov    %rdx,0x38(%r12)
     821:	48 8b 10             	mov    (%rax),%rdx
     824:	48 85 d2             	test   %rdx,%rdx
     827:	74 04                	je     82d <find_or_alloc_head+0x26d>
     829:	4c 89 72 18          	mov    %r14,0x18(%rdx)
     82d:	8b 50 0c             	mov    0xc(%rax),%edx
     830:	4c 89 30             	mov    %r14,(%rax)
     833:	8d 54 92 05          	lea    0x5(%rdx,%rdx,4),%edx
     837:	01 d2                	add    %edx,%edx
     839:	39 50 08             	cmp    %edx,0x8(%rax)
     83c:	0f 82 90 fe ff ff    	jb     6d2 <find_or_alloc_head+0x112>
     842:	49 8b 44 24 18       	mov    0x18(%r12),%rax
     847:	8b 58 34             	mov    0x34(%rax),%ebx
     84a:	85 db                	test   %ebx,%ebx
     84c:	0f 85 80 fe ff ff    	jne    6d2 <find_or_alloc_head+0x112>
     852:	8b 78 08             	mov    0x8(%rax),%edi
				kmalloc_caches[kmalloc_type(flags)][index],
				flags, size);
#endif
	}
	return __kmalloc(size, flags);
     855:	be c0 0c 00 00       	mov    $0xcc0,%esi
     85a:	48 c1 e7 05          	shl    $0x5,%rdi
     85e:	e8 00 00 00 00       	callq  863 <find_or_alloc_head+0x2a3>
     863:	49 89 c5             	mov    %rax,%r13
     866:	48 85 c0             	test   %rax,%rax
     869:	0f 84 00 00 00 00    	je     86f <find_or_alloc_head+0x2af>
     86f:	4d 8b 74 24 18       	mov    0x18(%r12),%r14
	return __underlying_memset(p, c, size);
     874:	31 f6                	xor    %esi,%esi
     876:	48 89 c7             	mov    %rax,%rdi
     879:	41 8b 56 08          	mov    0x8(%r14),%edx
     87d:	48 c1 e2 05          	shl    $0x5,%rdx
     881:	e8 00 00 00 00       	callq  886 <find_or_alloc_head+0x2c6>
     886:	41 8b 56 08          	mov    0x8(%r14),%edx
     88a:	41 8b 46 10          	mov    0x10(%r14),%eax
     88e:	41 8b 7e 0c          	mov    0xc(%r14),%edi
     892:	8d 54 12 ff          	lea    -0x1(%rdx,%rdx,1),%edx
     896:	85 c2                	test   %eax,%edx
     898:	8d 4f 01             	lea    0x1(%rdi),%ecx
     89b:	0f 95 c2             	setne  %dl
     89e:	d3 e8                	shr    %cl,%eax
     8a0:	0f b6 d2             	movzbl %dl,%edx
     8a3:	01 d0                	add    %edx,%eax
     8a5:	41 89 46 28          	mov    %eax,0x28(%r14)
     8a9:	49 8b 44 24 18       	mov    0x18(%r12),%rax
     8ae:	c7 40 2c 00 00 00 00 	movl   $0x0,0x2c(%rax)
     8b5:	49 8b 4c 24 18       	mov    0x18(%r12),%rcx
     8ba:	8b 41 08             	mov    0x8(%rcx),%eax
     8bd:	85 c0                	test   %eax,%eax
     8bf:	0f 84 9c 00 00 00    	je     961 <find_or_alloc_head+0x3a1>
     8c5:	45 31 c0             	xor    %r8d,%r8d
     8c8:	44 89 c2             	mov    %r8d,%edx
     8cb:	48 c1 e2 04          	shl    $0x4,%rdx
     8cf:	48 03 11             	add    (%rcx),%rdx
     8d2:	48 8b 12             	mov    (%rdx),%rdx
     8d5:	48 85 d2             	test   %rdx,%rdx
     8d8:	75 0d                	jne    8e7 <find_or_alloc_head+0x327>
     8da:	eb 78                	jmp    954 <find_or_alloc_head+0x394>
     8dc:	49 8b 44 24 18       	mov    0x18(%r12),%rax
     8e1:	48 89 fa             	mov    %rdi,%rdx
     8e4:	8b 40 08             	mov    0x8(%rax),%eax
     8e7:	8d 44 00 ff          	lea    -0x1(%rax,%rax,1),%eax
     8eb:	23 42 34             	and    0x34(%rdx),%eax
     8ee:	48 8b 7a 20          	mov    0x20(%rdx),%rdi
     8f2:	48 c1 e0 04          	shl    $0x4,%rax
     8f6:	4c 01 e8             	add    %r13,%rax
     8f9:	8b 70 08             	mov    0x8(%rax),%esi
     8fc:	8d 4e 01             	lea    0x1(%rsi),%ecx
     8ff:	89 48 08             	mov    %ecx,0x8(%rax)
     902:	49 8b 74 24 18       	mov    0x18(%r12),%rsi
     907:	3b 4e 28             	cmp    0x28(%rsi),%ecx
     90a:	76 20                	jbe    92c <find_or_alloc_head+0x36c>
     90c:	83 46 2c 01          	addl   $0x1,0x2c(%rsi)
     910:	49 8b 74 24 18       	mov    0x18(%r12),%rsi
     915:	8b 48 0c             	mov    0xc(%rax),%ecx
     918:	44 8b 4e 28          	mov    0x28(%rsi),%r9d
     91c:	44 0f af c9          	imul   %ecx,%r9d
     920:	44 39 48 08          	cmp    %r9d,0x8(%rax)
     924:	76 06                	jbe    92c <find_or_alloc_head+0x36c>
     926:	83 c1 01             	add    $0x1,%ecx
     929:	89 48 0c             	mov    %ecx,0xc(%rax)
     92c:	48 c7 42 18 00 00 00 	movq   $0x0,0x18(%rdx)
     933:	00 
     934:	48 8b 08             	mov    (%rax),%rcx
     937:	48 89 4a 20          	mov    %rcx,0x20(%rdx)
     93b:	48 85 c9             	test   %rcx,%rcx
     93e:	74 04                	je     944 <find_or_alloc_head+0x384>
     940:	48 89 51 18          	mov    %rdx,0x18(%rcx)
     944:	48 89 10             	mov    %rdx,(%rax)
     947:	48 85 ff             	test   %rdi,%rdi
     94a:	75 90                	jne    8dc <find_or_alloc_head+0x31c>
     94c:	49 8b 4c 24 18       	mov    0x18(%r12),%rcx
     951:	8b 41 08             	mov    0x8(%rcx),%eax
     954:	41 83 c0 01          	add    $0x1,%r8d
     958:	44 39 c0             	cmp    %r8d,%eax
     95b:	0f 87 67 ff ff ff    	ja     8c8 <find_or_alloc_head+0x308>
     961:	48 8b 39             	mov    (%rcx),%rdi
     964:	e8 00 00 00 00       	callq  969 <find_or_alloc_head+0x3a9>
     969:	49 8b 44 24 18       	mov    0x18(%r12),%rax
     96e:	d1 60 08             	shll   0x8(%rax)
     971:	49 8b 44 24 18       	mov    0x18(%r12),%rax
     976:	83 40 0c 01          	addl   $0x1,0xc(%rax)
     97a:	49 8b 44 24 18       	mov    0x18(%r12),%rax
     97f:	4c 89 28             	mov    %r13,(%rax)
     982:	49 8b 44 24 18       	mov    0x18(%r12),%rax
     987:	8b 50 10             	mov    0x10(%rax),%edx
     98a:	d1 ea                	shr    %edx
     98c:	39 50 2c             	cmp    %edx,0x2c(%rax)
     98f:	76 06                	jbe    997 <find_or_alloc_head+0x3d7>
     991:	8b 58 30             	mov    0x30(%rax),%ebx
     994:	83 c3 01             	add    $0x1,%ebx
     997:	89 58 30             	mov    %ebx,0x30(%rax)
     99a:	49 8b 44 24 18       	mov    0x18(%r12),%rax
     99f:	83 78 30 01          	cmpl   $0x1,0x30(%rax)
     9a3:	0f 86 29 fd ff ff    	jbe    6d2 <find_or_alloc_head+0x112>
     9a9:	c7 40 34 01 00 00 00 	movl   $0x1,0x34(%rax)
     9b0:	e9 1d fd ff ff       	jmpq   6d2 <find_or_alloc_head+0x112>
     9b5:	49 c7 44 24 28 00 00 	movq   $0x0,0x28(%r12)
     9bc:	00 00 
		return kmem_cache_alloc_trace(
     9be:	ba 40 00 00 00       	mov    $0x40,%edx
     9c3:	be c0 0c 00 00       	mov    $0xcc0,%esi
     9c8:	48 8b 3d 00 00 00 00 	mov    0x0(%rip),%rdi        # 9cf <find_or_alloc_head+0x40f>
     9cf:	49 c7 44 24 20 00 00 	movq   $0x0,0x20(%r12)
     9d6:	00 00 
     9d8:	e8 00 00 00 00       	callq  9dd <find_or_alloc_head+0x41d>
     9dd:	49 89 44 24 18       	mov    %rax,0x18(%r12)
     9e2:	49 89 c7             	mov    %rax,%r15
     9e5:	48 85 c0             	test   %rax,%rax
     9e8:	0f 84 00 00 00 00    	je     9ee <find_or_alloc_head+0x42e>
     9ee:	48 89 c7             	mov    %rax,%rdi
     9f1:	b9 08 00 00 00       	mov    $0x8,%ecx
     9f6:	4c 89 e8             	mov    %r13,%rax
     9f9:	ba 00 02 00 00       	mov    $0x200,%edx
     9fe:	f3 48 ab             	rep stos %rax,%es:(%rdi)
     a01:	48 8b 3d 00 00 00 00 	mov    0x0(%rip),%rdi        # a08 <find_or_alloc_head+0x448>
     a08:	be c0 0c 00 00       	mov    $0xcc0,%esi
     a0d:	48 b8 20 00 00 00 05 	movabs $0x500000020,%rax
     a14:	00 00 00 
     a17:	4d 89 77 18          	mov    %r14,0x18(%r15)
     a1b:	49 89 47 08          	mov    %rax,0x8(%r15)
     a1f:	49 c7 47 20 18 00 00 	movq   $0x18,0x20(%r15)
     a26:	00 
     a27:	e8 00 00 00 00       	callq  a2c <find_or_alloc_head+0x46c>
     a2c:	49 89 07             	mov    %rax,(%r15)
     a2f:	49 8b 44 24 18       	mov    0x18(%r12),%rax
     a34:	c7 40 38 e1 1f 11 a0 	movl   $0xa0111fe1,0x38(%rax)
     a3b:	49 8b 44 24 18       	mov    0x18(%r12),%rax
     a40:	48 8b 00             	mov    (%rax),%rax
     a43:	48 85 c0             	test   %rax,%rax
     a46:	0f 84 00 00 00 00    	je     a4c <find_or_alloc_head+0x48c>
     a4c:	48 8d 78 08          	lea    0x8(%rax),%rdi
     a50:	48 c7 00 00 00 00 00 	movq   $0x0,(%rax)
     a57:	48 c7 80 f8 01 00 00 	movq   $0x0,0x1f8(%rax)
     a5e:	00 00 00 00 
     a62:	48 83 e7 f8          	and    $0xfffffffffffffff8,%rdi
     a66:	48 29 f8             	sub    %rdi,%rax
     a69:	8d 88 00 02 00 00    	lea    0x200(%rax),%ecx
     a6f:	4c 89 e8             	mov    %r13,%rax
     a72:	c1 e9 03             	shr    $0x3,%ecx
     a75:	f3 48 ab             	rep stos %rax,%es:(%rdi)
     a78:	4c 89 25 00 00 00 00 	mov    %r12,0x0(%rip)        # a7f <find_or_alloc_head+0x4bf>
     a7f:	4d 89 e5             	mov    %r12,%r13
     a82:	e9 6a fd ff ff       	jmpq   7f1 <find_or_alloc_head+0x231>
     a87:	66 0f 1f 84 00 00 00 	nopw   0x0(%rax,%rax,1)
     a8e:	00 00 

0000000000000a90 <update_node>:
    HASH_ADD_STR(node_table, digest, node);
    return node;
}

void update_node(struct Node *node, char is_inc)
{
     a90:	e8 00 00 00 00       	callq  a95 <update_node+0x5>
     a95:	55                   	push   %rbp
     a96:	48 89 e5             	mov    %rsp,%rbp
     a99:	41 54                	push   %r12
     a9b:	49 89 fc             	mov    %rdi,%r12
     a9e:	53                   	push   %rbx
     a9f:	89 f3                	mov    %esi,%ebx
    struct Head* head = NULL;

    del_node_list(node);
     aa1:	e8 00 00 00 00       	callq  aa6 <update_node+0x16>

    node->ref = is_inc? node->ref+1 : node->ref-1;
     aa6:	49 8b 44 24 18       	mov    0x18(%r12),%rax
     aab:	48 8d 78 01          	lea    0x1(%rax),%rdi
     aaf:	84 db                	test   %bl,%bl
     ab1:	75 04                	jne    ab7 <update_node+0x27>
     ab3:	48 8d 78 ff          	lea    -0x1(%rax),%rdi
     ab7:	49 89 7c 24 18       	mov    %rdi,0x18(%r12)
    if(node->ref == 0){
     abc:	48 85 ff             	test   %rdi,%rdi
     abf:	0f 85 b0 00 00 00    	jne    b75 <update_node+0xe5>
        HASH_DEL(node_table, node);
     ac5:	48 8b 15 00 00 00 00 	mov    0x0(%rip),%rdx        # acc <update_node+0x3c>
     acc:	49 8b 44 24 38       	mov    0x38(%r12),%rax
     ad1:	49 8d 7c 24 30       	lea    0x30(%r12),%rdi
     ad6:	48 8b 4a 30          	mov    0x30(%rdx),%rcx
     ada:	48 85 c0             	test   %rax,%rax
     add:	0f 84 bb 00 00 00    	je     b9e <update_node+0x10e>
     ae3:	48 3b 79 18          	cmp    0x18(%rcx),%rdi
     ae7:	0f 84 e4 00 00 00    	je     bd1 <update_node+0x141>
     aed:	49 8b 74 24 40       	mov    0x40(%r12),%rsi
     af2:	48 8b 49 20          	mov    0x20(%rcx),%rcx
     af6:	48 89 74 08 10       	mov    %rsi,0x10(%rax,%rcx,1)
     afb:	49 8b 74 24 40       	mov    0x40(%r12),%rsi
     b00:	48 8b 4a 30          	mov    0x30(%rdx),%rcx
     b04:	48 85 f6             	test   %rsi,%rsi
     b07:	74 12                	je     b1b <update_node+0x8b>
     b09:	48 8b 41 20          	mov    0x20(%rcx),%rax
     b0d:	4d 8b 44 24 38       	mov    0x38(%r12),%r8
     b12:	4c 89 44 06 08       	mov    %r8,0x8(%rsi,%rax,1)
     b17:	48 8b 4a 30          	mov    0x30(%rdx),%rcx
     b1b:	8b 41 08             	mov    0x8(%rcx),%eax
     b1e:	83 e8 01             	sub    $0x1,%eax
     b21:	41 23 44 24 64       	and    0x64(%r12),%eax
     b26:	48 c1 e0 04          	shl    $0x4,%rax
     b2a:	48 03 01             	add    (%rcx),%rax
     b2d:	83 68 08 01          	subl   $0x1,0x8(%rax)
     b31:	48 3b 38             	cmp    (%rax),%rdi
     b34:	0f 84 83 00 00 00    	je     bbd <update_node+0x12d>
     b3a:	49 8b 4c 24 48       	mov    0x48(%r12),%rcx
     b3f:	49 8b 44 24 50       	mov    0x50(%r12),%rax
     b44:	48 85 c9             	test   %rcx,%rcx
     b47:	74 09                	je     b52 <update_node+0xc2>
     b49:	48 89 41 20          	mov    %rax,0x20(%rcx)
     b4d:	49 8b 44 24 50       	mov    0x50(%r12),%rax
     b52:	48 85 c0             	test   %rax,%rax
     b55:	74 09                	je     b60 <update_node+0xd0>
     b57:	49 8b 4c 24 48       	mov    0x48(%r12),%rcx
     b5c:	48 89 48 18          	mov    %rcx,0x18(%rax)
     b60:	48 8b 42 30          	mov    0x30(%rdx),%rax
     b64:	83 68 10 01          	subl   $0x1,0x10(%rax)
        kfree(node);
     b68:	4c 89 e7             	mov    %r12,%rdi
     b6b:	e8 00 00 00 00       	callq  b70 <update_node+0xe0>
        return;
    }

    head = find_or_alloc_head(node->ref);
    list_add(&node->list, &head->head);
}
     b70:	5b                   	pop    %rbx
     b71:	41 5c                	pop    %r12
     b73:	5d                   	pop    %rbp
     b74:	c3                   	retq   
    head = find_or_alloc_head(node->ref);
     b75:	e8 00 00 00 00       	callq  b7a <update_node+0xea>
    list_add(&node->list, &head->head);
     b7a:	49 8d 54 24 20       	lea    0x20(%r12),%rdx
	__list_add(new, head, head->next);
     b7f:	48 8b 48 08          	mov    0x8(%rax),%rcx
	next->prev = new;
     b83:	48 89 51 08          	mov    %rdx,0x8(%rcx)
	new->next = next;
     b87:	49 89 4c 24 20       	mov    %rcx,0x20(%r12)
     b8c:	48 8d 48 08          	lea    0x8(%rax),%rcx
     b90:	49 89 4c 24 28       	mov    %rcx,0x28(%r12)
	WRITE_ONCE(prev->next, new);
     b95:	48 89 50 08          	mov    %rdx,0x8(%rax)
}
     b99:	5b                   	pop    %rbx
     b9a:	41 5c                	pop    %r12
     b9c:	5d                   	pop    %rbp
     b9d:	c3                   	retq   
        HASH_DEL(node_table, node);
     b9e:	49 8b 74 24 40       	mov    0x40(%r12),%rsi
     ba3:	48 85 f6             	test   %rsi,%rsi
     ba6:	74 4b                	je     bf3 <update_node+0x163>
     ba8:	48 3b 79 18          	cmp    0x18(%rcx),%rdi
     bac:	74 23                	je     bd1 <update_node+0x141>
     bae:	48 89 35 00 00 00 00 	mov    %rsi,0x0(%rip)        # bb5 <update_node+0x125>
     bb5:	48 89 f2             	mov    %rsi,%rdx
     bb8:	e9 43 ff ff ff       	jmpq   b00 <update_node+0x70>
     bbd:	49 8b 54 24 50       	mov    0x50(%r12),%rdx
     bc2:	48 89 10             	mov    %rdx,(%rax)
     bc5:	48 8b 15 00 00 00 00 	mov    0x0(%rip),%rdx        # bcc <update_node+0x13c>
     bcc:	e9 69 ff ff ff       	jmpq   b3a <update_node+0xaa>
     bd1:	48 03 41 20          	add    0x20(%rcx),%rax
     bd5:	48 89 41 18          	mov    %rax,0x18(%rcx)
     bd9:	49 8b 44 24 38       	mov    0x38(%r12),%rax
     bde:	48 85 c0             	test   %rax,%rax
     be1:	74 09                	je     bec <update_node+0x15c>
     be3:	48 8b 4a 30          	mov    0x30(%rdx),%rcx
     be7:	e9 01 ff ff ff       	jmpq   aed <update_node+0x5d>
     bec:	49 8b 74 24 40       	mov    0x40(%r12),%rsi
     bf1:	eb bb                	jmp    bae <update_node+0x11e>
     bf3:	48 8b 39             	mov    (%rcx),%rdi
     bf6:	e8 00 00 00 00       	callq  bfb <update_node+0x16b>
     bfb:	48 8b 05 00 00 00 00 	mov    0x0(%rip),%rax        # c02 <update_node+0x172>
     c02:	48 8b 78 30          	mov    0x30(%rax),%rdi
     c06:	e8 00 00 00 00       	callq  c0b <update_node+0x17b>
     c0b:	48 c7 05 00 00 00 00 	movq   $0x0,0x0(%rip)        # c16 <update_node+0x186>
     c12:	00 00 00 00 
     c16:	e9 4d ff ff ff       	jmpq   b68 <update_node+0xd8>
     c1b:	0f 1f 44 00 00       	nopl   0x0(%rax,%rax,1)

0000000000000c20 <find_or_add_node>:
{
     c20:	e8 00 00 00 00       	callq  c25 <find_or_add_node+0x5>
     c25:	55                   	push   %rbp
     c26:	48 89 e5             	mov    %rsp,%rbp
     c29:	41 57                	push   %r15
     c2b:	41 56                	push   %r14
     c2d:	41 55                	push   %r13
     c2f:	41 54                	push   %r12
     c31:	53                   	push   %rbx
     c32:	48 89 f3             	mov    %rsi,%rbx
    ret = do_hash(src, tmp_digest);
     c35:	48 8d 75 bc          	lea    -0x44(%rbp),%rsi
{
     c39:	48 83 ec 20          	sub    $0x20,%rsp
     c3d:	65 48 8b 04 25 28 00 	mov    %gs:0x28,%rax
     c44:	00 00 
     c46:	48 89 45 d0          	mov    %rax,-0x30(%rbp)
     c4a:	31 c0                	xor    %eax,%eax
    ret = do_hash(src, tmp_digest);
     c4c:	e8 00 00 00 00       	callq  c51 <find_or_add_node+0x31>
        return ERR_PTR(ret);
     c51:	4c 63 e0             	movslq %eax,%r12
    if(ret < 0)
     c54:	85 c0                	test   %eax,%eax
     c56:	0f 88 4c 02 00 00    	js     ea8 <find_or_add_node+0x288>
    HASH_FIND_STR(node_table, tmp_digest, node);
     c5c:	48 8b 3d 00 00 00 00 	mov    0x0(%rip),%rdi        # c63 <find_or_add_node+0x43>
     c63:	48 85 ff             	test   %rdi,%rdi
     c66:	0f 84 61 02 00 00    	je     ecd <find_or_add_node+0x2ad>
     c6c:	0f b6 45 c1          	movzbl -0x3f(%rbp),%eax
     c70:	0f b6 75 c3          	movzbl -0x3d(%rbp),%esi
     c74:	44 0f b6 45 c6       	movzbl -0x3a(%rbp),%r8d
     c79:	c1 e0 08             	shl    $0x8,%eax
     c7c:	c1 e6 18             	shl    $0x18,%esi
     c7f:	89 c2                	mov    %eax,%edx
     c81:	0f b6 45 c2          	movzbl -0x3e(%rbp),%eax
     c85:	41 c1 e0 10          	shl    $0x10,%r8d
     c89:	c1 e0 10             	shl    $0x10,%eax
     c8c:	01 d0                	add    %edx,%eax
     c8e:	0f b6 55 c0          	movzbl -0x40(%rbp),%edx
     c92:	01 d0                	add    %edx,%eax
     c94:	0f b6 55 c4          	movzbl -0x3c(%rbp),%edx
     c98:	01 c6                	add    %eax,%esi
     c9a:	0f b6 45 c5          	movzbl -0x3b(%rbp),%eax
     c9e:	44 8d 8e b9 79 37 9e 	lea    -0x61c88647(%rsi),%r9d
     ca5:	c1 e0 08             	shl    $0x8,%eax
     ca8:	8d 84 02 ef be ed fe 	lea    -0x1124111(%rdx,%rax,1),%eax
     caf:	42 8d 14 00          	lea    (%rax,%r8,1),%edx
     cb3:	0f b6 45 bd          	movzbl -0x43(%rbp),%eax
     cb7:	44 0f b6 45 c7       	movzbl -0x39(%rbp),%r8d
     cbc:	c1 e0 08             	shl    $0x8,%eax
     cbf:	41 c1 e0 18          	shl    $0x18,%r8d
     cc3:	89 c1                	mov    %eax,%ecx
     cc5:	0f b6 45 be          	movzbl -0x42(%rbp),%eax
     cc9:	41 01 d0             	add    %edx,%r8d
     ccc:	0f b6 55 bc          	movzbl -0x44(%rbp),%edx
     cd0:	c1 e0 10             	shl    $0x10,%eax
     cd3:	01 c8                	add    %ecx,%eax
     cd5:	44 89 c9             	mov    %r9d,%ecx
     cd8:	01 c2                	add    %eax,%edx
     cda:	0f b6 45 bf          	movzbl -0x41(%rbp),%eax
     cde:	44 29 c1             	sub    %r8d,%ecx
     ce1:	c1 e0 18             	shl    $0x18,%eax
     ce4:	01 d0                	add    %edx,%eax
     ce6:	44 89 c2             	mov    %r8d,%edx
     ce9:	29 f0                	sub    %esi,%eax
     ceb:	c1 ea 0d             	shr    $0xd,%edx
     cee:	44 29 c0             	sub    %r8d,%eax
     cf1:	31 d0                	xor    %edx,%eax
     cf3:	29 c1                	sub    %eax,%ecx
     cf5:	41 29 c0             	sub    %eax,%r8d
     cf8:	89 ca                	mov    %ecx,%edx
     cfa:	89 c1                	mov    %eax,%ecx
     cfc:	c1 e1 08             	shl    $0x8,%ecx
     cff:	31 d1                	xor    %edx,%ecx
     d01:	44 89 c2             	mov    %r8d,%edx
     d04:	41 89 c8             	mov    %ecx,%r8d
     d07:	29 ca                	sub    %ecx,%edx
     d09:	29 c8                	sub    %ecx,%eax
     d0b:	41 c1 e8 0d          	shr    $0xd,%r8d
     d0f:	41 31 d0             	xor    %edx,%r8d
     d12:	44 89 c2             	mov    %r8d,%edx
     d15:	44 29 c0             	sub    %r8d,%eax
     d18:	c1 ea 0c             	shr    $0xc,%edx
     d1b:	31 c2                	xor    %eax,%edx
     d1d:	44 29 c1             	sub    %r8d,%ecx
     d20:	89 d0                	mov    %edx,%eax
     d22:	29 d1                	sub    %edx,%ecx
     d24:	41 29 d0             	sub    %edx,%r8d
     d27:	c1 e0 10             	shl    $0x10,%eax
     d2a:	31 c8                	xor    %ecx,%eax
     d2c:	44 89 c1             	mov    %r8d,%ecx
     d2f:	41 89 c0             	mov    %eax,%r8d
     d32:	29 c1                	sub    %eax,%ecx
     d34:	29 c2                	sub    %eax,%edx
     d36:	41 c1 e8 05          	shr    $0x5,%r8d
     d3a:	41 31 c8             	xor    %ecx,%r8d
     d3d:	0f b6 4d cc          	movzbl -0x34(%rbp),%ecx
     d41:	45 89 c1             	mov    %r8d,%r9d
     d44:	44 29 c2             	sub    %r8d,%edx
     d47:	44 29 c0             	sub    %r8d,%eax
     d4a:	41 c1 e9 03          	shr    $0x3,%r9d
     d4e:	41 31 d1             	xor    %edx,%r9d
     d51:	44 89 ca             	mov    %r9d,%edx
     d54:	44 29 c8             	sub    %r9d,%eax
     d57:	45 29 c8             	sub    %r9d,%r8d
     d5a:	c1 e2 0a             	shl    $0xa,%edx
     d5d:	31 d0                	xor    %edx,%eax
     d5f:	89 c2                	mov    %eax,%edx
     d61:	41 29 c0             	sub    %eax,%r8d
     d64:	c1 ea 0f             	shr    $0xf,%edx
     d67:	41 31 d0             	xor    %edx,%r8d
     d6a:	0f b6 55 cf          	movzbl -0x31(%rbp),%edx
     d6e:	41 83 c0 14          	add    $0x14,%r8d
     d72:	89 d6                	mov    %edx,%esi
     d74:	0f b6 55 ce          	movzbl -0x32(%rbp),%edx
     d78:	c1 e6 18             	shl    $0x18,%esi
     d7b:	c1 e2 10             	shl    $0x10,%edx
     d7e:	01 f2                	add    %esi,%edx
     d80:	01 d1                	add    %edx,%ecx
     d82:	0f b6 55 cd          	movzbl -0x33(%rbp),%edx
     d86:	c1 e2 08             	shl    $0x8,%edx
     d89:	01 ca                	add    %ecx,%edx
     d8b:	0f b6 4d cb          	movzbl -0x35(%rbp),%ecx
     d8f:	01 d0                	add    %edx,%eax
     d91:	0f b6 55 c8          	movzbl -0x38(%rbp),%edx
     d95:	89 ce                	mov    %ecx,%esi
     d97:	0f b6 4d ca          	movzbl -0x36(%rbp),%ecx
     d9b:	c1 e6 18             	shl    $0x18,%esi
     d9e:	c1 e1 10             	shl    $0x10,%ecx
     da1:	01 f1                	add    %esi,%ecx
     da3:	44 89 c6             	mov    %r8d,%esi
     da6:	01 d1                	add    %edx,%ecx
     da8:	0f b6 55 c9          	movzbl -0x37(%rbp),%edx
     dac:	c1 e2 08             	shl    $0x8,%edx
     daf:	c1 ee 0d             	shr    $0xd,%esi
     db2:	01 ca                	add    %ecx,%edx
     db4:	44 01 ca             	add    %r9d,%edx
     db7:	29 c2                	sub    %eax,%edx
     db9:	44 29 c0             	sub    %r8d,%eax
     dbc:	44 29 c2             	sub    %r8d,%edx
     dbf:	31 f2                	xor    %esi,%edx
     dc1:	29 d0                	sub    %edx,%eax
     dc3:	41 29 d0             	sub    %edx,%r8d
     dc6:	89 c1                	mov    %eax,%ecx
     dc8:	89 d0                	mov    %edx,%eax
     dca:	c1 e0 08             	shl    $0x8,%eax
     dcd:	31 c8                	xor    %ecx,%eax
     dcf:	44 89 c1             	mov    %r8d,%ecx
     dd2:	41 89 c0             	mov    %eax,%r8d
     dd5:	29 c1                	sub    %eax,%ecx
     dd7:	29 c2                	sub    %eax,%edx
     dd9:	41 c1 e8 0d          	shr    $0xd,%r8d
     ddd:	41 31 c8             	xor    %ecx,%r8d
     de0:	44 89 c6             	mov    %r8d,%esi
     de3:	44 29 c2             	sub    %r8d,%edx
     de6:	44 29 c0             	sub    %r8d,%eax
     de9:	c1 ee 0c             	shr    $0xc,%esi
     dec:	31 d6                	xor    %edx,%esi
     dee:	29 f0                	sub    %esi,%eax
     df0:	41 29 f0             	sub    %esi,%r8d
     df3:	89 c2                	mov    %eax,%edx
     df5:	89 f0                	mov    %esi,%eax
     df7:	c1 e0 10             	shl    $0x10,%eax
     dfa:	31 d0                	xor    %edx,%eax
     dfc:	89 c2                	mov    %eax,%edx
     dfe:	41 29 c0             	sub    %eax,%r8d
     e01:	29 c6                	sub    %eax,%esi
     e03:	c1 ea 05             	shr    $0x5,%edx
     e06:	44 31 c2             	xor    %r8d,%edx
     e09:	89 d1                	mov    %edx,%ecx
     e0b:	29 d6                	sub    %edx,%esi
     e0d:	29 d0                	sub    %edx,%eax
     e0f:	c1 e9 03             	shr    $0x3,%ecx
     e12:	31 ce                	xor    %ecx,%esi
     e14:	29 f0                	sub    %esi,%eax
     e16:	89 c1                	mov    %eax,%ecx
     e18:	89 f0                	mov    %esi,%eax
     e1a:	c1 e0 0a             	shl    $0xa,%eax
     e1d:	31 c8                	xor    %ecx,%eax
     e1f:	89 d1                	mov    %edx,%ecx
     e21:	48 8b 57 30          	mov    0x30(%rdi),%rdx
     e25:	29 f1                	sub    %esi,%ecx
     e27:	29 c1                	sub    %eax,%ecx
     e29:	c1 e8 0f             	shr    $0xf,%eax
     e2c:	31 c1                	xor    %eax,%ecx
     e2e:	8b 42 08             	mov    0x8(%rdx),%eax
     e31:	83 e8 01             	sub    $0x1,%eax
     e34:	21 c8                	and    %ecx,%eax
     e36:	48 c1 e0 04          	shl    $0x4,%rax
     e3a:	48 03 02             	add    (%rdx),%rax
     e3d:	4c 8b 20             	mov    (%rax),%r12
     e40:	4d 85 e4             	test   %r12,%r12
     e43:	0f 84 84 00 00 00    	je     ecd <find_or_add_node+0x2ad>
     e49:	48 8b 42 20          	mov    0x20(%rdx),%rax
     e4d:	48 89 c2             	mov    %rax,%rdx
     e50:	48 f7 da             	neg    %rdx
     e53:	49 29 c4             	sub    %rax,%r12
     e56:	75 11                	jne    e69 <find_or_add_node+0x249>
     e58:	eb 73                	jmp    ecd <find_or_add_node+0x2ad>
     e5a:	4d 8b 64 24 50       	mov    0x50(%r12),%r12
     e5f:	4d 85 e4             	test   %r12,%r12
     e62:	74 69                	je     ecd <find_or_add_node+0x2ad>
     e64:	49 01 d4             	add    %rdx,%r12
     e67:	74 64                	je     ecd <find_or_add_node+0x2ad>
     e69:	41 39 4c 24 64       	cmp    %ecx,0x64(%r12)
     e6e:	75 ea                	jne    e5a <find_or_add_node+0x23a>
     e70:	41 83 7c 24 60 14    	cmpl   $0x14,0x60(%r12)
     e76:	75 e2                	jne    e5a <find_or_add_node+0x23a>
	return __underlying_memcmp(p, q, size);
     e78:	49 8b 44 24 58       	mov    0x58(%r12),%rax
     e7d:	48 8b 7d bc          	mov    -0x44(%rbp),%rdi
     e81:	48 39 38             	cmp    %rdi,(%rax)
     e84:	75 d4                	jne    e5a <find_or_add_node+0x23a>
     e86:	48 8b 7d c4          	mov    -0x3c(%rbp),%rdi
     e8a:	48 39 78 08          	cmp    %rdi,0x8(%rax)
     e8e:	75 ca                	jne    e5a <find_or_add_node+0x23a>
     e90:	8b 7d cc             	mov    -0x34(%rbp),%edi
     e93:	39 78 10             	cmp    %edi,0x10(%rax)
     e96:	75 c2                	jne    e5a <find_or_add_node+0x23a>
        update_node(node, CNT_INC);
     e98:	be 01 00 00 00       	mov    $0x1,%esi
     e9d:	4c 89 e7             	mov    %r12,%rdi
     ea0:	e8 00 00 00 00       	callq  ea5 <find_or_add_node+0x285>
        *is_find_node = 1;
     ea5:	c6 03 01             	movb   $0x1,(%rbx)
}
     ea8:	48 8b 45 d0          	mov    -0x30(%rbp),%rax
     eac:	65 48 33 04 25 28 00 	xor    %gs:0x28,%rax
     eb3:	00 00 
     eb5:	0f 85 5c 05 00 00    	jne    1417 <find_or_add_node+0x7f7>
     ebb:	48 83 c4 20          	add    $0x20,%rsp
     ebf:	4c 89 e0             	mov    %r12,%rax
     ec2:	5b                   	pop    %rbx
     ec3:	41 5c                	pop    %r12
     ec5:	41 5d                	pop    %r13
     ec7:	41 5e                	pop    %r14
     ec9:	41 5f                	pop    %r15
     ecb:	5d                   	pop    %rbp
     ecc:	c3                   	retq   
    *is_find_node = 0;
     ecd:	c6 03 00             	movb   $0x0,(%rbx)
    if(HASH_COUNT(node_table) >= CAPACITY)
     ed0:	48 8b 05 00 00 00 00 	mov    0x0(%rip),%rax        # ed7 <find_or_add_node+0x2b7>
     ed7:	48 85 c0             	test   %rax,%rax
     eda:	74 11                	je     eed <find_or_add_node+0x2cd>
     edc:	48 8b 40 30          	mov    0x30(%rax),%rax
     ee0:	81 78 10 87 13 00 00 	cmpl   $0x1387,0x10(%rax)
     ee7:	0f 87 35 04 00 00    	ja     1322 <find_or_add_node+0x702>
        node = alloc_Node();
     eed:	e8 00 00 00 00       	callq  ef2 <find_or_add_node+0x2d2>
     ef2:	49 89 c4             	mov    %rax,%r12
    if(node == NULL)
     ef5:	4d 85 e4             	test   %r12,%r12
     ef8:	74 ae                	je     ea8 <find_or_add_node+0x288>
    node->ref = 1;
     efa:	48 8b 45 bc          	mov    -0x44(%rbp),%rax
    head = find_or_alloc_head(node->ref);
     efe:	bf 01 00 00 00       	mov    $0x1,%edi
     f03:	4d 8d 74 24 30       	lea    0x30(%r12),%r14
    node->ref = 1;
     f08:	49 c7 44 24 18 01 00 	movq   $0x1,0x18(%r12)
     f0f:	00 00 
	return __underlying_memcpy(p, q, size);
     f11:	49 89 04 24          	mov    %rax,(%r12)
     f15:	48 8b 45 c4          	mov    -0x3c(%rbp),%rax
     f19:	49 89 44 24 08       	mov    %rax,0x8(%r12)
     f1e:	8b 45 cc             	mov    -0x34(%rbp),%eax
     f21:	41 89 44 24 10       	mov    %eax,0x10(%r12)
    head = find_or_alloc_head(node->ref);
     f26:	e8 00 00 00 00       	callq  f2b <find_or_add_node+0x30b>
    list_add(&node->list, &head->head);
     f2b:	49 8d 54 24 20       	lea    0x20(%r12),%rdx
    HASH_ADD_STR(node_table, digest, node);
     f30:	4c 8b 2d 00 00 00 00 	mov    0x0(%rip),%r13        # f37 <find_or_add_node+0x317>
	__list_add(new, head, head->next);
     f37:	48 8b 48 08          	mov    0x8(%rax),%rcx
	next->prev = new;
     f3b:	48 89 51 08          	mov    %rdx,0x8(%rcx)
	new->next = next;
     f3f:	49 89 4c 24 20       	mov    %rcx,0x20(%r12)
    list_add(&node->list, &head->head);
     f44:	48 8d 48 08          	lea    0x8(%rax),%rcx
     f48:	49 89 4c 24 28       	mov    %rcx,0x28(%r12)
	WRITE_ONCE(prev->next, new);
     f4d:	48 89 50 08          	mov    %rdx,0x8(%rax)
    HASH_ADD_STR(node_table, digest, node);
     f51:	41 0f b6 74 24 05    	movzbl 0x5(%r12),%esi
     f57:	41 0f b6 44 24 04    	movzbl 0x4(%r12),%eax
     f5d:	41 0f b6 7c 24 0a    	movzbl 0xa(%r12),%edi
     f63:	4d 89 64 24 58       	mov    %r12,0x58(%r12)
     f68:	41 c7 44 24 60 14 00 	movl   $0x14,0x60(%r12)
     f6f:	00 00 
     f71:	c1 e6 08             	shl    $0x8,%esi
     f74:	89 f2                	mov    %esi,%edx
     f76:	41 0f b6 74 24 06    	movzbl 0x6(%r12),%esi
     f7c:	c1 e7 10             	shl    $0x10,%edi
     f7f:	c1 e6 10             	shl    $0x10,%esi
     f82:	01 d6                	add    %edx,%esi
     f84:	41 0f b6 54 24 08    	movzbl 0x8(%r12),%edx
     f8a:	01 f0                	add    %esi,%eax
     f8c:	41 0f b6 74 24 07    	movzbl 0x7(%r12),%esi
     f92:	c1 e6 18             	shl    $0x18,%esi
     f95:	01 c6                	add    %eax,%esi
     f97:	41 0f b6 44 24 09    	movzbl 0x9(%r12),%eax
     f9d:	44 8d 86 b9 79 37 9e 	lea    -0x61c88647(%rsi),%r8d
     fa4:	c1 e0 08             	shl    $0x8,%eax
     fa7:	8d 84 02 ef be ed fe 	lea    -0x1124111(%rdx,%rax,1),%eax
     fae:	8d 14 38             	lea    (%rax,%rdi,1),%edx
     fb1:	41 0f b6 44 24 01    	movzbl 0x1(%r12),%eax
     fb7:	41 0f b6 7c 24 0b    	movzbl 0xb(%r12),%edi
     fbd:	c1 e0 08             	shl    $0x8,%eax
     fc0:	c1 e7 18             	shl    $0x18,%edi
     fc3:	89 c1                	mov    %eax,%ecx
     fc5:	41 0f b6 44 24 02    	movzbl 0x2(%r12),%eax
     fcb:	01 d7                	add    %edx,%edi
     fcd:	41 0f b6 14 24       	movzbl (%r12),%edx
     fd2:	c1 e0 10             	shl    $0x10,%eax
     fd5:	01 c8                	add    %ecx,%eax
     fd7:	44 89 c1             	mov    %r8d,%ecx
     fda:	01 c2                	add    %eax,%edx
     fdc:	41 0f b6 44 24 03    	movzbl 0x3(%r12),%eax
     fe2:	29 f9                	sub    %edi,%ecx
     fe4:	c1 e0 18             	shl    $0x18,%eax
     fe7:	01 d0                	add    %edx,%eax
     fe9:	89 fa                	mov    %edi,%edx
     feb:	29 f0                	sub    %esi,%eax
     fed:	c1 ea 0d             	shr    $0xd,%edx
     ff0:	29 f8                	sub    %edi,%eax
     ff2:	31 d0                	xor    %edx,%eax
     ff4:	29 c1                	sub    %eax,%ecx
     ff6:	29 c7                	sub    %eax,%edi
     ff8:	89 ca                	mov    %ecx,%edx
     ffa:	89 c1                	mov    %eax,%ecx
     ffc:	c1 e1 08             	shl    $0x8,%ecx
     fff:	31 d1                	xor    %edx,%ecx
    1001:	29 cf                	sub    %ecx,%edi
    1003:	29 c8                	sub    %ecx,%eax
    1005:	89 fa                	mov    %edi,%edx
    1007:	89 cf                	mov    %ecx,%edi
    1009:	c1 ef 0d             	shr    $0xd,%edi
    100c:	31 d7                	xor    %edx,%edi
    100e:	89 fa                	mov    %edi,%edx
    1010:	29 f8                	sub    %edi,%eax
    1012:	c1 ea 0c             	shr    $0xc,%edx
    1015:	31 c2                	xor    %eax,%edx
    1017:	29 f9                	sub    %edi,%ecx
    1019:	89 d0                	mov    %edx,%eax
    101b:	29 d1                	sub    %edx,%ecx
    101d:	29 d7                	sub    %edx,%edi
    101f:	c1 e0 10             	shl    $0x10,%eax
    1022:	31 c8                	xor    %ecx,%eax
    1024:	29 c7                	sub    %eax,%edi
    1026:	29 c2                	sub    %eax,%edx
    1028:	89 f9                	mov    %edi,%ecx
    102a:	89 c7                	mov    %eax,%edi
    102c:	c1 ef 05             	shr    $0x5,%edi
    102f:	31 cf                	xor    %ecx,%edi
    1031:	41 0f b6 4c 24 10    	movzbl 0x10(%r12),%ecx
    1037:	41 89 f8             	mov    %edi,%r8d
    103a:	29 fa                	sub    %edi,%edx
    103c:	29 f8                	sub    %edi,%eax
    103e:	41 c1 e8 03          	shr    $0x3,%r8d
    1042:	41 31 d0             	xor    %edx,%r8d
    1045:	44 89 c2             	mov    %r8d,%edx
    1048:	44 29 c0             	sub    %r8d,%eax
    104b:	44 29 c7             	sub    %r8d,%edi
    104e:	c1 e2 0a             	shl    $0xa,%edx
    1051:	31 d0                	xor    %edx,%eax
    1053:	89 c2                	mov    %eax,%edx
    1055:	29 c7                	sub    %eax,%edi
    1057:	c1 ea 0f             	shr    $0xf,%edx
    105a:	31 d7                	xor    %edx,%edi
    105c:	41 0f b6 54 24 13    	movzbl 0x13(%r12),%edx
    1062:	83 c7 14             	add    $0x14,%edi
    1065:	89 d6                	mov    %edx,%esi
    1067:	41 0f b6 54 24 12    	movzbl 0x12(%r12),%edx
    106d:	c1 e6 18             	shl    $0x18,%esi
    1070:	c1 e2 10             	shl    $0x10,%edx
    1073:	01 f2                	add    %esi,%edx
    1075:	01 d1                	add    %edx,%ecx
    1077:	41 0f b6 54 24 11    	movzbl 0x11(%r12),%edx
    107d:	c1 e2 08             	shl    $0x8,%edx
    1080:	01 ca                	add    %ecx,%edx
    1082:	41 0f b6 4c 24 0f    	movzbl 0xf(%r12),%ecx
    1088:	01 d0                	add    %edx,%eax
    108a:	41 0f b6 54 24 0c    	movzbl 0xc(%r12),%edx
    1090:	89 ce                	mov    %ecx,%esi
    1092:	41 0f b6 4c 24 0e    	movzbl 0xe(%r12),%ecx
    1098:	c1 e6 18             	shl    $0x18,%esi
    109b:	c1 e1 10             	shl    $0x10,%ecx
    109e:	01 f1                	add    %esi,%ecx
    10a0:	01 d1                	add    %edx,%ecx
    10a2:	41 0f b6 54 24 0d    	movzbl 0xd(%r12),%edx
    10a8:	c1 e2 08             	shl    $0x8,%edx
    10ab:	01 ca                	add    %ecx,%edx
    10ad:	89 f9                	mov    %edi,%ecx
    10af:	44 01 c2             	add    %r8d,%edx
    10b2:	c1 e9 0d             	shr    $0xd,%ecx
    10b5:	29 c2                	sub    %eax,%edx
    10b7:	29 f8                	sub    %edi,%eax
    10b9:	29 fa                	sub    %edi,%edx
    10bb:	31 ca                	xor    %ecx,%edx
    10bd:	29 d0                	sub    %edx,%eax
    10bf:	29 d7                	sub    %edx,%edi
    10c1:	89 c1                	mov    %eax,%ecx
    10c3:	89 d0                	mov    %edx,%eax
    10c5:	c1 e0 08             	shl    $0x8,%eax
    10c8:	31 c8                	xor    %ecx,%eax
    10ca:	29 c7                	sub    %eax,%edi
    10cc:	29 c2                	sub    %eax,%edx
    10ce:	89 f9                	mov    %edi,%ecx
    10d0:	89 c7                	mov    %eax,%edi
    10d2:	c1 ef 0d             	shr    $0xd,%edi
    10d5:	31 cf                	xor    %ecx,%edi
    10d7:	89 f9                	mov    %edi,%ecx
    10d9:	29 fa                	sub    %edi,%edx
    10db:	29 f8                	sub    %edi,%eax
    10dd:	c1 e9 0c             	shr    $0xc,%ecx
    10e0:	31 d1                	xor    %edx,%ecx
    10e2:	29 c8                	sub    %ecx,%eax
    10e4:	29 cf                	sub    %ecx,%edi
    10e6:	89 c2                	mov    %eax,%edx
    10e8:	89 c8                	mov    %ecx,%eax
    10ea:	c1 e0 10             	shl    $0x10,%eax
    10ed:	31 d0                	xor    %edx,%eax
    10ef:	89 c2                	mov    %eax,%edx
    10f1:	29 c7                	sub    %eax,%edi
    10f3:	29 c1                	sub    %eax,%ecx
    10f5:	c1 ea 05             	shr    $0x5,%edx
    10f8:	31 fa                	xor    %edi,%edx
    10fa:	89 d6                	mov    %edx,%esi
    10fc:	29 d1                	sub    %edx,%ecx
    10fe:	c1 ee 03             	shr    $0x3,%esi
    1101:	31 f1                	xor    %esi,%ecx
    1103:	29 d0                	sub    %edx,%eax
    1105:	89 cb                	mov    %ecx,%ebx
    1107:	29 c8                	sub    %ecx,%eax
    1109:	29 ca                	sub    %ecx,%edx
    110b:	c1 e3 0a             	shl    $0xa,%ebx
    110e:	31 d8                	xor    %ebx,%eax
    1110:	29 c2                	sub    %eax,%edx
    1112:	c1 e8 0f             	shr    $0xf,%eax
    1115:	31 d0                	xor    %edx,%eax
    1117:	41 89 44 24 64       	mov    %eax,0x64(%r12)
    111c:	89 c3                	mov    %eax,%ebx
    111e:	4d 85 ed             	test   %r13,%r13
    1121:	0f 84 08 02 00 00    	je     132f <find_or_add_node+0x70f>
    1127:	49 8b 45 30          	mov    0x30(%r13),%rax
    112b:	49 c7 44 24 40 00 00 	movq   $0x0,0x40(%r12)
    1132:	00 00 
    1134:	49 89 44 24 30       	mov    %rax,0x30(%r12)
    1139:	49 8b 55 30          	mov    0x30(%r13),%rdx
    113d:	48 8b 42 18          	mov    0x18(%rdx),%rax
    1141:	48 2b 42 20          	sub    0x20(%rdx),%rax
    1145:	49 89 44 24 38       	mov    %rax,0x38(%r12)
    114a:	49 8b 45 30          	mov    0x30(%r13),%rax
    114e:	48 8b 40 18          	mov    0x18(%rax),%rax
    1152:	4c 89 60 10          	mov    %r12,0x10(%rax)
    1156:	49 8b 45 30          	mov    0x30(%r13),%rax
    115a:	4c 89 70 18          	mov    %r14,0x18(%rax)
    115e:	49 8b 45 30          	mov    0x30(%r13),%rax
    1162:	83 40 10 01          	addl   $0x1,0x10(%rax)
    1166:	49 8b 55 30          	mov    0x30(%r13),%rdx
    116a:	8b 42 08             	mov    0x8(%rdx),%eax
    116d:	83 e8 01             	sub    $0x1,%eax
    1170:	21 d8                	and    %ebx,%eax
    1172:	48 c1 e0 04          	shl    $0x4,%rax
    1176:	48 03 02             	add    (%rdx),%rax
    1179:	48 8b 10             	mov    (%rax),%rdx
    117c:	83 40 08 01          	addl   $0x1,0x8(%rax)
    1180:	49 c7 44 24 48 00 00 	movq   $0x0,0x48(%r12)
    1187:	00 00 
    1189:	49 89 54 24 50       	mov    %rdx,0x50(%r12)
    118e:	48 8b 10             	mov    (%rax),%rdx
    1191:	48 85 d2             	test   %rdx,%rdx
    1194:	74 04                	je     119a <find_or_add_node+0x57a>
    1196:	4c 89 72 18          	mov    %r14,0x18(%rdx)
    119a:	8b 50 0c             	mov    0xc(%rax),%edx
    119d:	4c 89 30             	mov    %r14,(%rax)
    11a0:	8d 54 92 05          	lea    0x5(%rdx,%rdx,4),%edx
    11a4:	01 d2                	add    %edx,%edx
    11a6:	39 50 08             	cmp    %edx,0x8(%rax)
    11a9:	0f 82 f9 fc ff ff    	jb     ea8 <find_or_add_node+0x288>
    11af:	49 8b 44 24 30       	mov    0x30(%r12),%rax
    11b4:	8b 58 34             	mov    0x34(%rax),%ebx
    11b7:	85 db                	test   %ebx,%ebx
    11b9:	0f 85 e9 fc ff ff    	jne    ea8 <find_or_add_node+0x288>
    11bf:	8b 78 08             	mov    0x8(%rax),%edi
	return __kmalloc(size, flags);
    11c2:	be c0 0c 00 00       	mov    $0xcc0,%esi
    11c7:	48 c1 e7 05          	shl    $0x5,%rdi
    11cb:	e8 00 00 00 00       	callq  11d0 <find_or_add_node+0x5b0>
    11d0:	49 89 c5             	mov    %rax,%r13
    11d3:	48 85 c0             	test   %rax,%rax
    11d6:	0f 84 00 00 00 00    	je     11dc <find_or_add_node+0x5bc>
    11dc:	49 8b 44 24 30       	mov    0x30(%r12),%rax
	return __underlying_memset(p, c, size);
    11e1:	31 f6                	xor    %esi,%esi
    11e3:	4c 89 ef             	mov    %r13,%rdi
    11e6:	8b 50 08             	mov    0x8(%rax),%edx
    11e9:	48 c1 e2 05          	shl    $0x5,%rdx
    11ed:	e8 00 00 00 00       	callq  11f2 <find_or_add_node+0x5d2>
    11f2:	49 8b 44 24 30       	mov    0x30(%r12),%rax
    11f7:	31 f6                	xor    %esi,%esi
    11f9:	8b 48 08             	mov    0x8(%rax),%ecx
    11fc:	8b 50 10             	mov    0x10(%rax),%edx
    11ff:	8b 78 0c             	mov    0xc(%rax),%edi
    1202:	8d 4c 09 ff          	lea    -0x1(%rcx,%rcx,1),%ecx
    1206:	85 d1                	test   %edx,%ecx
    1208:	8d 4f 01             	lea    0x1(%rdi),%ecx
    120b:	40 0f 95 c6          	setne  %sil
    120f:	d3 ea                	shr    %cl,%edx
    1211:	01 f2                	add    %esi,%edx
    1213:	89 50 28             	mov    %edx,0x28(%rax)
    1216:	49 8b 44 24 30       	mov    0x30(%r12),%rax
    121b:	c7 40 2c 00 00 00 00 	movl   $0x0,0x2c(%rax)
    1222:	49 8b 4c 24 30       	mov    0x30(%r12),%rcx
    1227:	8b 41 08             	mov    0x8(%rcx),%eax
    122a:	85 c0                	test   %eax,%eax
    122c:	0f 84 9c 00 00 00    	je     12ce <find_or_add_node+0x6ae>
    1232:	45 31 c0             	xor    %r8d,%r8d
    1235:	44 89 c2             	mov    %r8d,%edx
    1238:	48 c1 e2 04          	shl    $0x4,%rdx
    123c:	48 03 11             	add    (%rcx),%rdx
    123f:	48 8b 12             	mov    (%rdx),%rdx
    1242:	48 85 d2             	test   %rdx,%rdx
    1245:	75 0d                	jne    1254 <find_or_add_node+0x634>
    1247:	eb 78                	jmp    12c1 <find_or_add_node+0x6a1>
    1249:	49 8b 44 24 30       	mov    0x30(%r12),%rax
    124e:	48 89 fa             	mov    %rdi,%rdx
    1251:	8b 40 08             	mov    0x8(%rax),%eax
    1254:	8d 44 00 ff          	lea    -0x1(%rax,%rax,1),%eax
    1258:	23 42 34             	and    0x34(%rdx),%eax
    125b:	48 8b 7a 20          	mov    0x20(%rdx),%rdi
    125f:	48 c1 e0 04          	shl    $0x4,%rax
    1263:	4c 01 e8             	add    %r13,%rax
    1266:	8b 70 08             	mov    0x8(%rax),%esi
    1269:	8d 4e 01             	lea    0x1(%rsi),%ecx
    126c:	89 48 08             	mov    %ecx,0x8(%rax)
    126f:	49 8b 74 24 30       	mov    0x30(%r12),%rsi
    1274:	3b 4e 28             	cmp    0x28(%rsi),%ecx
    1277:	76 20                	jbe    1299 <find_or_add_node+0x679>
    1279:	83 46 2c 01          	addl   $0x1,0x2c(%rsi)
    127d:	49 8b 74 24 30       	mov    0x30(%r12),%rsi
    1282:	8b 48 0c             	mov    0xc(%rax),%ecx
    1285:	44 8b 56 28          	mov    0x28(%rsi),%r10d
    1289:	44 0f af d1          	imul   %ecx,%r10d
    128d:	44 39 50 08          	cmp    %r10d,0x8(%rax)
    1291:	76 06                	jbe    1299 <find_or_add_node+0x679>
    1293:	83 c1 01             	add    $0x1,%ecx
    1296:	89 48 0c             	mov    %ecx,0xc(%rax)
    1299:	48 c7 42 18 00 00 00 	movq   $0x0,0x18(%rdx)
    12a0:	00 
    12a1:	48 8b 08             	mov    (%rax),%rcx
    12a4:	48 89 4a 20          	mov    %rcx,0x20(%rdx)
    12a8:	48 85 c9             	test   %rcx,%rcx
    12ab:	74 04                	je     12b1 <find_or_add_node+0x691>
    12ad:	48 89 51 18          	mov    %rdx,0x18(%rcx)
    12b1:	48 89 10             	mov    %rdx,(%rax)
    12b4:	48 85 ff             	test   %rdi,%rdi
    12b7:	75 90                	jne    1249 <find_or_add_node+0x629>
    12b9:	49 8b 4c 24 30       	mov    0x30(%r12),%rcx
    12be:	8b 41 08             	mov    0x8(%rcx),%eax
    12c1:	41 83 c0 01          	add    $0x1,%r8d
    12c5:	41 39 c0             	cmp    %eax,%r8d
    12c8:	0f 82 67 ff ff ff    	jb     1235 <find_or_add_node+0x615>
    12ce:	48 8b 39             	mov    (%rcx),%rdi
    12d1:	e8 00 00 00 00       	callq  12d6 <find_or_add_node+0x6b6>
    12d6:	49 8b 44 24 30       	mov    0x30(%r12),%rax
    12db:	d1 60 08             	shll   0x8(%rax)
    12de:	49 8b 44 24 30       	mov    0x30(%r12),%rax
    12e3:	83 40 0c 01          	addl   $0x1,0xc(%rax)
    12e7:	49 8b 44 24 30       	mov    0x30(%r12),%rax
    12ec:	4c 89 28             	mov    %r13,(%rax)
    12ef:	49 8b 44 24 30       	mov    0x30(%r12),%rax
    12f4:	8b 50 10             	mov    0x10(%rax),%edx
    12f7:	d1 ea                	shr    %edx
    12f9:	39 50 2c             	cmp    %edx,0x2c(%rax)
    12fc:	76 06                	jbe    1304 <find_or_add_node+0x6e4>
    12fe:	8b 58 30             	mov    0x30(%rax),%ebx
    1301:	83 c3 01             	add    $0x1,%ebx
    1304:	89 58 30             	mov    %ebx,0x30(%rax)
    1307:	49 8b 44 24 30       	mov    0x30(%r12),%rax
    130c:	83 78 30 01          	cmpl   $0x1,0x30(%rax)
    1310:	0f 86 92 fb ff ff    	jbe    ea8 <find_or_add_node+0x288>
    1316:	c7 40 34 01 00 00 00 	movl   $0x1,0x34(%rax)
    131d:	e9 86 fb ff ff       	jmpq   ea8 <find_or_add_node+0x288>
        node = del_LFU();
    1322:	e8 00 00 00 00       	callq  1327 <find_or_add_node+0x707>
    1327:	49 89 c4             	mov    %rax,%r12
    132a:	e9 c6 fb ff ff       	jmpq   ef5 <find_or_add_node+0x2d5>
    HASH_ADD_STR(node_table, digest, node);
    132f:	49 c7 44 24 40 00 00 	movq   $0x0,0x40(%r12)
    1336:	00 00 
		return kmem_cache_alloc_trace(
    1338:	ba 40 00 00 00       	mov    $0x40,%edx
    133d:	be c0 0c 00 00       	mov    $0xcc0,%esi
    1342:	49 c7 44 24 38 00 00 	movq   $0x0,0x38(%r12)
    1349:	00 00 
    134b:	48 8b 3d 00 00 00 00 	mov    0x0(%rip),%rdi        # 1352 <find_or_add_node+0x732>
    1352:	e8 00 00 00 00       	callq  1357 <find_or_add_node+0x737>
    1357:	49 89 44 24 30       	mov    %rax,0x30(%r12)
    135c:	48 85 c0             	test   %rax,%rax
    135f:	0f 84 00 00 00 00    	je     1365 <find_or_add_node+0x745>
    1365:	48 89 c7             	mov    %rax,%rdi
    1368:	b9 08 00 00 00       	mov    $0x8,%ecx
    136d:	4c 89 e8             	mov    %r13,%rax
    1370:	ba 00 02 00 00       	mov    $0x200,%edx
    1375:	f3 48 ab             	rep stos %rax,%es:(%rdi)
    1378:	be c0 0c 00 00       	mov    $0xcc0,%esi
    137d:	49 8b 44 24 30       	mov    0x30(%r12),%rax
    1382:	4c 89 70 18          	mov    %r14,0x18(%rax)
    1386:	49 8b 44 24 30       	mov    0x30(%r12),%rax
    138b:	c7 40 08 20 00 00 00 	movl   $0x20,0x8(%rax)
    1392:	49 8b 44 24 30       	mov    0x30(%r12),%rax
    1397:	c7 40 0c 05 00 00 00 	movl   $0x5,0xc(%rax)
    139e:	49 8b 44 24 30       	mov    0x30(%r12),%rax
    13a3:	48 c7 40 20 30 00 00 	movq   $0x30,0x20(%rax)
    13aa:	00 
    13ab:	48 8b 3d 00 00 00 00 	mov    0x0(%rip),%rdi        # 13b2 <find_or_add_node+0x792>
    13b2:	4d 8b 7c 24 30       	mov    0x30(%r12),%r15
    13b7:	e8 00 00 00 00       	callq  13bc <find_or_add_node+0x79c>
    13bc:	49 89 07             	mov    %rax,(%r15)
    13bf:	49 8b 44 24 30       	mov    0x30(%r12),%rax
    13c4:	c7 40 38 e1 1f 11 a0 	movl   $0xa0111fe1,0x38(%rax)
    13cb:	49 8b 44 24 30       	mov    0x30(%r12),%rax
    13d0:	48 8b 00             	mov    (%rax),%rax
    13d3:	48 85 c0             	test   %rax,%rax
    13d6:	0f 84 00 00 00 00    	je     13dc <find_or_add_node+0x7bc>
    13dc:	48 8d 78 08          	lea    0x8(%rax),%rdi
    13e0:	48 c7 00 00 00 00 00 	movq   $0x0,(%rax)
    13e7:	48 c7 80 f8 01 00 00 	movq   $0x0,0x1f8(%rax)
    13ee:	00 00 00 00 
    13f2:	48 83 e7 f8          	and    $0xfffffffffffffff8,%rdi
    13f6:	48 29 f8             	sub    %rdi,%rax
    13f9:	8d 88 00 02 00 00    	lea    0x200(%rax),%ecx
    13ff:	4c 89 e8             	mov    %r13,%rax
    1402:	c1 e9 03             	shr    $0x3,%ecx
    1405:	f3 48 ab             	rep stos %rax,%es:(%rdi)
    1408:	4c 89 25 00 00 00 00 	mov    %r12,0x0(%rip)        # 140f <find_or_add_node+0x7ef>
    140f:	4d 89 e5             	mov    %r12,%r13
    1412:	e9 47 fd ff ff       	jmpq   115e <find_or_add_node+0x53e>
}
    1417:	e8 00 00 00 00       	callq  141c <find_or_add_node+0x7fc>
    141c:	0f 1f 40 00          	nopl   0x0(%rax)

0000000000001420 <free_hashtable>:

void free_hashtable(void)
{
    1420:	e8 00 00 00 00       	callq  1425 <free_hashtable+0x5>
    1425:	55                   	push   %rbp
    struct Node* node, *tmp_node;
    struct Head* head, *tmp_head;
    HASH_ITER(hh, node_table, node, tmp_node){
    1426:	48 8b 15 00 00 00 00 	mov    0x0(%rip),%rdx        # 142d <free_hashtable+0xd>
{
    142d:	48 89 e5             	mov    %rsp,%rbp
    1430:	41 54                	push   %r12
    1432:	53                   	push   %rbx
    HASH_ITER(hh, node_table, node, tmp_node){
    1433:	48 85 d2             	test   %rdx,%rdx
    1436:	0f 84 c3 00 00 00    	je     14ff <free_hashtable+0xdf>
    143c:	48 8b 5a 40          	mov    0x40(%rdx),%rbx
    1440:	49 89 d4             	mov    %rdx,%r12
        HASH_DEL(node_table, node);
    1443:	49 8b 44 24 38       	mov    0x38(%r12),%rax
    1448:	48 8b 4a 30          	mov    0x30(%rdx),%rcx
    144c:	49 8d 7c 24 30       	lea    0x30(%r12),%rdi
    1451:	48 85 c0             	test   %rax,%rax
    1454:	0f 84 9f 01 00 00    	je     15f9 <free_hashtable+0x1d9>
    145a:	48 3b 79 18          	cmp    0x18(%rcx),%rdi
    145e:	0f 84 fb 01 00 00    	je     165f <free_hashtable+0x23f>
    1464:	49 8b 74 24 40       	mov    0x40(%r12),%rsi
    1469:	48 8b 49 20          	mov    0x20(%rcx),%rcx
    146d:	48 89 74 08 10       	mov    %rsi,0x10(%rax,%rcx,1)
    1472:	49 8b 74 24 40       	mov    0x40(%r12),%rsi
    1477:	48 8b 4a 30          	mov    0x30(%rdx),%rcx
    147b:	48 85 f6             	test   %rsi,%rsi
    147e:	74 12                	je     1492 <free_hashtable+0x72>
    1480:	48 8b 41 20          	mov    0x20(%rcx),%rax
    1484:	4d 8b 44 24 38       	mov    0x38(%r12),%r8
    1489:	4c 89 44 06 08       	mov    %r8,0x8(%rsi,%rax,1)
    148e:	48 8b 4a 30          	mov    0x30(%rdx),%rcx
    1492:	8b 41 08             	mov    0x8(%rcx),%eax
    1495:	83 e8 01             	sub    $0x1,%eax
    1498:	41 23 44 24 64       	and    0x64(%r12),%eax
    149d:	48 c1 e0 04          	shl    $0x4,%rax
    14a1:	48 03 01             	add    (%rcx),%rax
    14a4:	83 68 08 01          	subl   $0x1,0x8(%rax)
    14a8:	48 39 38             	cmp    %rdi,(%rax)
    14ab:	0f 84 9a 01 00 00    	je     164b <free_hashtable+0x22b>
    14b1:	49 8b 4c 24 48       	mov    0x48(%r12),%rcx
    14b6:	49 8b 44 24 50       	mov    0x50(%r12),%rax
    14bb:	48 85 c9             	test   %rcx,%rcx
    14be:	74 09                	je     14c9 <free_hashtable+0xa9>
    14c0:	48 89 41 20          	mov    %rax,0x20(%rcx)
    14c4:	49 8b 44 24 50       	mov    0x50(%r12),%rax
    14c9:	48 85 c0             	test   %rax,%rax
    14cc:	74 09                	je     14d7 <free_hashtable+0xb7>
    14ce:	49 8b 4c 24 48       	mov    0x48(%r12),%rcx
    14d3:	48 89 48 18          	mov    %rcx,0x18(%rax)
    14d7:	48 8b 42 30          	mov    0x30(%rdx),%rax
    14db:	83 68 10 01          	subl   $0x1,0x10(%rax)
        kfree(node);
    14df:	4c 89 e7             	mov    %r12,%rdi
    14e2:	e8 00 00 00 00       	callq  14e7 <free_hashtable+0xc7>
    HASH_ITER(hh, node_table, node, tmp_node){
    14e7:	48 85 db             	test   %rbx,%rbx
    14ea:	74 13                	je     14ff <free_hashtable+0xdf>
    14ec:	49 89 dc             	mov    %rbx,%r12
    14ef:	48 8b 15 00 00 00 00 	mov    0x0(%rip),%rdx        # 14f6 <free_hashtable+0xd6>
    14f6:	48 8b 5b 40          	mov    0x40(%rbx),%rbx
    14fa:	e9 44 ff ff ff       	jmpq   1443 <free_hashtable+0x23>
    }

    HASH_ITER(hh, head_table, head, tmp_head){
    14ff:	48 8b 15 00 00 00 00 	mov    0x0(%rip),%rdx        # 1506 <free_hashtable+0xe6>
    1506:	48 85 d2             	test   %rdx,%rdx
    1509:	0f 84 6b 01 00 00    	je     167a <free_hashtable+0x25a>
    150f:	48 8b 5a 28          	mov    0x28(%rdx),%rbx
    1513:	49 89 d4             	mov    %rdx,%r12
        HASH_DEL(head_table, head);
    1516:	49 8b 44 24 20       	mov    0x20(%r12),%rax
    151b:	48 8b 4a 18          	mov    0x18(%rdx),%rcx
    151f:	49 8d 7c 24 18       	lea    0x18(%r12),%rdi
    1524:	48 85 c0             	test   %rax,%rax
    1527:	0f 84 a9 00 00 00    	je     15d6 <free_hashtable+0x1b6>
    152d:	48 39 79 18          	cmp    %rdi,0x18(%rcx)
    1531:	0f 84 f9 00 00 00    	je     1630 <free_hashtable+0x210>
    1537:	49 8b 74 24 28       	mov    0x28(%r12),%rsi
    153c:	48 8b 49 20          	mov    0x20(%rcx),%rcx
    1540:	48 89 74 08 10       	mov    %rsi,0x10(%rax,%rcx,1)
    1545:	49 8b 74 24 28       	mov    0x28(%r12),%rsi
    154a:	48 8b 4a 18          	mov    0x18(%rdx),%rcx
    154e:	48 85 f6             	test   %rsi,%rsi
    1551:	74 12                	je     1565 <free_hashtable+0x145>
    1553:	48 8b 41 20          	mov    0x20(%rcx),%rax
    1557:	4d 8b 44 24 20       	mov    0x20(%r12),%r8
    155c:	4c 89 44 06 08       	mov    %r8,0x8(%rsi,%rax,1)
    1561:	48 8b 4a 18          	mov    0x18(%rdx),%rcx
    1565:	8b 41 08             	mov    0x8(%rcx),%eax
    1568:	83 e8 01             	sub    $0x1,%eax
    156b:	41 23 44 24 4c       	and    0x4c(%r12),%eax
    1570:	48 c1 e0 04          	shl    $0x4,%rax
    1574:	48 03 01             	add    (%rcx),%rax
    1577:	83 68 08 01          	subl   $0x1,0x8(%rax)
    157b:	48 39 38             	cmp    %rdi,(%rax)
    157e:	0f 84 98 00 00 00    	je     161c <free_hashtable+0x1fc>
    1584:	49 8b 4c 24 30       	mov    0x30(%r12),%rcx
    1589:	49 8b 44 24 38       	mov    0x38(%r12),%rax
    158e:	48 85 c9             	test   %rcx,%rcx
    1591:	74 09                	je     159c <free_hashtable+0x17c>
    1593:	48 89 41 20          	mov    %rax,0x20(%rcx)
    1597:	49 8b 44 24 38       	mov    0x38(%r12),%rax
    159c:	48 85 c0             	test   %rax,%rax
    159f:	74 09                	je     15aa <free_hashtable+0x18a>
    15a1:	49 8b 4c 24 30       	mov    0x30(%r12),%rcx
    15a6:	48 89 48 18          	mov    %rcx,0x18(%rax)
    15aa:	48 8b 42 18          	mov    0x18(%rdx),%rax
    15ae:	83 68 10 01          	subl   $0x1,0x10(%rax)
        kfree(head);
    15b2:	4c 89 e7             	mov    %r12,%rdi
    15b5:	e8 00 00 00 00       	callq  15ba <free_hashtable+0x19a>
    HASH_ITER(hh, head_table, head, tmp_head){
    15ba:	48 85 db             	test   %rbx,%rbx
    15bd:	0f 84 b7 00 00 00    	je     167a <free_hashtable+0x25a>
    15c3:	49 89 dc             	mov    %rbx,%r12
    15c6:	48 8b 15 00 00 00 00 	mov    0x0(%rip),%rdx        # 15cd <free_hashtable+0x1ad>
    15cd:	48 8b 5b 28          	mov    0x28(%rbx),%rbx
    15d1:	e9 40 ff ff ff       	jmpq   1516 <free_hashtable+0xf6>
        HASH_DEL(head_table, head);
    15d6:	49 8b 74 24 28       	mov    0x28(%r12),%rsi
    15db:	48 85 f6             	test   %rsi,%rsi
    15de:	0f 84 af 00 00 00    	je     1693 <free_hashtable+0x273>
    15e4:	48 39 79 18          	cmp    %rdi,0x18(%rcx)
    15e8:	74 46                	je     1630 <free_hashtable+0x210>
    15ea:	48 89 35 00 00 00 00 	mov    %rsi,0x0(%rip)        # 15f1 <free_hashtable+0x1d1>
    15f1:	48 89 f2             	mov    %rsi,%rdx
    15f4:	e9 51 ff ff ff       	jmpq   154a <free_hashtable+0x12a>
        HASH_DEL(node_table, node);
    15f9:	49 8b 74 24 40       	mov    0x40(%r12),%rsi
    15fe:	48 85 f6             	test   %rsi,%rsi
    1601:	0f 84 b4 00 00 00    	je     16bb <free_hashtable+0x29b>
    1607:	48 3b 79 18          	cmp    0x18(%rcx),%rdi
    160b:	74 52                	je     165f <free_hashtable+0x23f>
    160d:	48 89 35 00 00 00 00 	mov    %rsi,0x0(%rip)        # 1614 <free_hashtable+0x1f4>
    1614:	48 89 f2             	mov    %rsi,%rdx
    1617:	e9 5b fe ff ff       	jmpq   1477 <free_hashtable+0x57>
        HASH_DEL(head_table, head);
    161c:	49 8b 54 24 38       	mov    0x38(%r12),%rdx
    1621:	48 89 10             	mov    %rdx,(%rax)
    1624:	48 8b 15 00 00 00 00 	mov    0x0(%rip),%rdx        # 162b <free_hashtable+0x20b>
    162b:	e9 54 ff ff ff       	jmpq   1584 <free_hashtable+0x164>
    1630:	48 03 41 20          	add    0x20(%rcx),%rax
    1634:	48 89 41 18          	mov    %rax,0x18(%rcx)
    1638:	49 8b 44 24 20       	mov    0x20(%r12),%rax
    163d:	48 85 c0             	test   %rax,%rax
    1640:	74 3d                	je     167f <free_hashtable+0x25f>
    1642:	48 8b 4a 18          	mov    0x18(%rdx),%rcx
    1646:	e9 ec fe ff ff       	jmpq   1537 <free_hashtable+0x117>
        HASH_DEL(node_table, node);
    164b:	49 8b 54 24 50       	mov    0x50(%r12),%rdx
    1650:	48 89 10             	mov    %rdx,(%rax)
    1653:	48 8b 15 00 00 00 00 	mov    0x0(%rip),%rdx        # 165a <free_hashtable+0x23a>
    165a:	e9 52 fe ff ff       	jmpq   14b1 <free_hashtable+0x91>
    165f:	48 03 41 20          	add    0x20(%rcx),%rax
    1663:	48 89 41 18          	mov    %rax,0x18(%rcx)
    1667:	49 8b 44 24 38       	mov    0x38(%r12),%rax
    166c:	48 85 c0             	test   %rax,%rax
    166f:	74 18                	je     1689 <free_hashtable+0x269>
    1671:	48 8b 4a 30          	mov    0x30(%rdx),%rcx
    1675:	e9 ea fd ff ff       	jmpq   1464 <free_hashtable+0x44>
    }
    167a:	5b                   	pop    %rbx
    167b:	41 5c                	pop    %r12
    167d:	5d                   	pop    %rbp
    167e:	c3                   	retq   
    167f:	49 8b 74 24 28       	mov    0x28(%r12),%rsi
    1684:	e9 61 ff ff ff       	jmpq   15ea <free_hashtable+0x1ca>
    1689:	49 8b 74 24 40       	mov    0x40(%r12),%rsi
    168e:	e9 7a ff ff ff       	jmpq   160d <free_hashtable+0x1ed>
        HASH_DEL(head_table, head);
    1693:	48 8b 39             	mov    (%rcx),%rdi
    1696:	e8 00 00 00 00       	callq  169b <free_hashtable+0x27b>
    169b:	48 8b 05 00 00 00 00 	mov    0x0(%rip),%rax        # 16a2 <free_hashtable+0x282>
    16a2:	48 8b 78 18          	mov    0x18(%rax),%rdi
    16a6:	e8 00 00 00 00       	callq  16ab <free_hashtable+0x28b>
    16ab:	48 c7 05 00 00 00 00 	movq   $0x0,0x0(%rip)        # 16b6 <free_hashtable+0x296>
    16b2:	00 00 00 00 
    16b6:	e9 f7 fe ff ff       	jmpq   15b2 <free_hashtable+0x192>
        HASH_DEL(node_table, node);
    16bb:	48 8b 39             	mov    (%rcx),%rdi
    16be:	e8 00 00 00 00       	callq  16c3 <free_hashtable+0x2a3>
    16c3:	48 8b 05 00 00 00 00 	mov    0x0(%rip),%rax        # 16ca <free_hashtable+0x2aa>
    16ca:	48 8b 78 30          	mov    0x30(%rax),%rdi
    16ce:	e8 00 00 00 00       	callq  16d3 <free_hashtable+0x2b3>
    16d3:	48 c7 05 00 00 00 00 	movq   $0x0,0x0(%rip)        # 16de <free_hashtable+0x2be>
    16da:	00 00 00 00 
    16de:	e9 fc fd ff ff       	jmpq   14df <free_hashtable+0xbf>

Disassembly of section .text.unlikely:

0000000000000000 <alloc_Node.cold>:
        pr_err("can't kzalloc hash node");
   0:	48 c7 c7 00 00 00 00 	mov    $0x0,%rdi
   7:	e8 00 00 00 00       	callq  c <alloc_Node.cold+0xc>
   c:	e9 00 00 00 00       	jmpq   11 <scan_min_ref_head.cold>

0000000000000011 <scan_min_ref_head.cold>:
    pr_err("can't scan the min ref head");
  11:	48 c7 c7 00 00 00 00 	mov    $0x0,%rdi
  18:	e8 00 00 00 00       	callq  1d <scan_min_ref_head.cold+0xc>
    return NULL;
  1d:	31 c0                	xor    %eax,%eax
  1f:	e9 00 00 00 00       	jmpq   24 <del_LFU.cold>

0000000000000024 <del_LFU.cold>:
        pr_err("del_LFU error");
  24:	48 c7 c7 00 00 00 00 	mov    $0x0,%rdi
  2b:	e8 00 00 00 00       	callq  30 <del_LFU.cold+0xc>
  30:	e9 00 00 00 00       	jmpq   35 <del_LFU.cold+0x11>
        pr_err("LFU empty list");
  35:	48 c7 c7 00 00 00 00 	mov    $0x0,%rdi
        return NULL;
  3c:	45 31 e4             	xor    %r12d,%r12d
        pr_err("LFU empty list");
  3f:	e8 00 00 00 00       	callq  44 <del_LFU.cold+0x20>
        return NULL;
  44:	e9 00 00 00 00       	jmpq   49 <find_or_alloc_head.cold>

0000000000000049 <find_or_alloc_head.cold>:
        HASH_ADD_INT(head_table, ref, head);
  49:	48 c7 c7 00 00 00 00 	mov    $0x0,%rdi
  50:	e8 00 00 00 00       	callq  55 <find_or_alloc_head.cold+0xc>
  55:	e9 00 00 00 00       	jmpq   5a <find_or_alloc_head.cold+0x11>
            pr_err("can't kzalloc hash head");
  5a:	48 c7 c7 00 00 00 00 	mov    $0x0,%rdi
  61:	e8 00 00 00 00       	callq  66 <find_or_alloc_head.cold+0x1d>
  66:	e9 00 00 00 00       	jmpq   6b <find_or_alloc_head.cold+0x22>
        HASH_ADD_INT(head_table, ref, head);
  6b:	48 c7 c7 00 00 00 00 	mov    $0x0,%rdi
  72:	e8 00 00 00 00       	callq  77 <find_or_alloc_head.cold+0x2e>
  77:	e9 00 00 00 00       	jmpq   7c <find_or_alloc_head.cold+0x33>
  7c:	48 c7 c7 00 00 00 00 	mov    $0x0,%rdi
  83:	e8 00 00 00 00       	callq  88 <find_or_alloc_head.cold+0x3f>
  88:	49 8b 7c 24 18       	mov    0x18(%r12),%rdi
  8d:	e8 00 00 00 00       	callq  92 <find_or_alloc_head.cold+0x49>
  92:	e9 00 00 00 00       	jmpq   97 <find_or_add_node.cold>

0000000000000097 <find_or_add_node.cold>:
    HASH_ADD_STR(node_table, digest, node);
  97:	48 c7 c7 00 00 00 00 	mov    $0x0,%rdi
  9e:	e8 00 00 00 00       	callq  a3 <find_or_add_node.cold+0xc>
  a3:	e9 00 00 00 00       	jmpq   a8 <find_or_add_node.cold+0x11>
  a8:	48 c7 c7 00 00 00 00 	mov    $0x0,%rdi
  af:	e8 00 00 00 00       	callq  b4 <find_or_add_node.cold+0x1d>
  b4:	49 8b 7c 24 30       	mov    0x30(%r12),%rdi
  b9:	e8 00 00 00 00       	callq  be <find_or_add_node.cold+0x27>
  be:	e9 00 00 00 00       	jmpq   c3 <find_or_add_node.cold+0x2c>
  c3:	48 c7 c7 00 00 00 00 	mov    $0x0,%rdi
  ca:	e8 00 00 00 00       	callq  cf <find_or_add_node.cold+0x38>
  cf:	e9 00 00 00 00       	jmpq   d4 <find_or_add_node.cold+0x3d>

Disassembly of section __mcount_loc:

0000000000000000 <__mcount_loc>:
	...
